
 Start         Length     Name                   Class
 0001:00401000 00045DECH .text                   CODE
 0002:00447000 000003E8H .itext                  ICODE
 0003:00448000 00005268H .data                   DATA
 0004:0044E000 0000639CH .bss                    BSS
 0005:00000000 00000000H .tls                    TLS


Detailed map of segments

 0001:00000000 000055A5 C=CODE     S=.text    G=(none)   M=System   ACBP=A9
 0001:000055A8 000001A2 C=CODE     S=.text    G=(none)   M=SysInit  ACBP=A9
 0001:0000574C 00000318 C=CODE     S=.text    G=(none)   M=SysConst ACBP=A9
 0001:00005A64 0000023C C=CODE     S=.text    G=(none)   M=Windows  ACBP=A9
 0001:00005CA0 00007E05 C=CODE     S=.text    G=(none)   M=SysUtils ACBP=A9
 0001:0000DAA8 00000006 C=CODE     S=.text    G=(none)   M=ActiveX  ACBP=A9
 0001:0000DAB0 000007EE C=CODE     S=.text    G=(none)   M=VarUtils ACBP=A9
 0001:0000E2A0 0000333C C=CODE     S=.text    G=(none)   M=Variants ACBP=A9
 0001:000115DC 00000070 C=CODE     S=.text    G=(none)   M=RTLConsts ACBP=A9
 0001:0001164C 0000007B C=CODE     S=.text    G=(none)   M=TypInfo  ACBP=A9
 0001:000116C8 00004055 C=CODE     S=.text    G=(none)   M=Classes  ACBP=A9
 0001:00015720 0000003B C=CODE     S=.text    G=(none)   M=i_DBMS_Provider ACBP=A9
 0001:0001575C 00001306 C=CODE     S=.text    G=(none)   M=t_SQL_types ACBP=A9
 0001:00016A64 000002D4 C=CODE     S=.text    G=(none)   M=t_ETS_Path ACBP=A9
 0001:00016D38 000005C7 C=CODE     S=.text    G=(none)   M=t_DBMS_version ACBP=A9
 0001:00017300 00000428 C=CODE     S=.text    G=(none)   M=t_DBMS_contenttype ACBP=A9
 0001:00017728 0000005A C=CODE     S=.text    G=(none)   M=t_DBMS_service ACBP=A9
 0001:00017784 0000017F C=CODE     S=.text    G=(none)   M=t_DBMS_Template ACBP=A9
 0001:00017904 00000098 C=CODE     S=.text    G=(none)   M=odbcsql  ACBP=A9
 0001:0001799C 0000004B C=CODE     S=.text    G=(none)   M=i_StatementHandleCache ACBP=A9
 0001:000179E8 00000D06 C=CODE     S=.text    G=(none)   M=t_ODBC_Exception ACBP=A9
 0001:000186F0 000018E3 C=CODE     S=.text    G=(none)   M=t_ODBC_Buffer ACBP=A9
 0001:00019FD4 00000EEC C=CODE     S=.text    G=(none)   M=u_Synchronizer ACBP=A9
 0001:0001AEC0 00000751 C=CODE     S=.text    G=(none)   M=u_StatementHandleCache ACBP=A9
 0001:0001B614 00000E3A C=CODE     S=.text    G=(none)   M=t_ODBC_Connection ACBP=A9
 0001:0001C450 00000033 C=CODE     S=.text    G=(none)   M=i_ZoomList ACBP=A9
 0001:0001C484 000000B0 C=CODE     S=.text    G=(none)   M=StrUtils ACBP=A9
 0001:0001C534 000003C4 C=CODE     S=.text    G=(none)   M=u_ZoomList ACBP=A9
 0001:0001C8F8 00000548 C=CODE     S=.text    G=(none)   M=u_TileArea ACBP=A9
 0001:0001CE40 0000030E C=CODE     S=.text    G=(none)   M=t_TSS    ACBP=A9
 0001:0001D150 000011D5 C=CODE     S=.text    G=(none)   M=IniFiles ACBP=A9
 0001:0001E328 000000EA C=CODE     S=.text    G=(none)   M=Contnrs  ACBP=A9
 0001:0001E414 0000000E C=CODE     S=.text    G=(none)   M=NativeNTAPI ACBP=A9
 0001:0001E424 0000028E C=CODE     S=.text    G=(none)   M=NTRegistry ACBP=A9
 0001:0001E6B4 00000FF8 C=CODE     S=.text    G=(none)   M=u_PStoreTools ACBP=A9
 0001:0001F6AC 0000011E C=CODE     S=.text    G=(none)   M=u_DBMS_Utils ACBP=A9
 0001:0001F7CC 00001A95 C=CODE     S=.text    G=(none)   M=u_DBMS_Connect ACBP=A9
 0001:00021264 000002E8 C=CODE     S=.text    G=(none)   M=u_ExecuteSQLArray ACBP=A9
 0001:0002154C 00002774 C=CODE     S=.text    G=(none)   M=SevenZip ACBP=A9
 0001:00023CC0 00000291 C=CODE     S=.text    G=(none)   M=u_7zHolder ACBP=A9
 0001:00023F54 00000008 C=CODE     S=.text    G=(none)   M=ZLibConst ACBP=A9
 0001:00023F5C 00008DC2 C=CODE     S=.text    G=(none)   M=ZLib     ACBP=A9
 0001:0002CD20 000074E1 C=CODE     S=.text    G=(none)   M=ALZLibExApi ACBP=A9
 0001:00034204 00000511 C=CODE     S=.text    G=(none)   M=ALZLibEx ACBP=A9
 0001:00034718 00000060 C=CODE     S=.text    G=(none)   M=DateUtils ACBP=A9
 0001:00034778 0000061E C=CODE     S=.text    G=(none)   M=ALZLibExGZ ACBP=A9
 0001:00034D98 000008FC C=CODE     S=.text    G=(none)   M=u_CompressBinaryData ACBP=A9
 0001:00035694 0000041D C=CODE     S=.text    G=(none)   M=u_Exif_Parser ACBP=A9
 0001:00035AB4 00000B5C C=CODE     S=.text    G=(none)   M=u_Tile_Parser ACBP=A9
 0001:00036610 000003B6 C=CODE     S=.text    G=(none)   M=u_Lang   ACBP=A9
 0001:000369C8 00000F42 C=CODE     S=.text    G=(none)   M=u_DBMS_TileEnum ACBP=A9
 0001:0003790C 00000502 C=CODE     S=.text    G=(none)   M=u_SQLScriptParser ACBP=A9
 0001:00037E10 00000950 C=CODE     S=.text    G=(none)   M=u_DBMS_Template ACBP=A9
 0001:00038760 0000CD1E C=CODE     S=.text    G=(none)   M=u_DBMS_Provider ACBP=A9
 0001:00045480 000006EB C=CODE     S=.text    G=(none)   M=u_exports ACBP=A9
 0001:00045B6C 00000280 C=CODE     S=.text    G=(none)   M=TileStorage_DBMS ACBP=A9
 0002:00000000 00000095 C=ICODE    S=.itext   G=(none)   M=System   ACBP=A9
 0002:00000098 00000011 C=ICODE    S=.itext   G=(none)   M=Windows  ACBP=A9
 0002:000000AC 00000088 C=ICODE    S=.itext   G=(none)   M=SysUtils ACBP=A9
 0002:00000134 0000000F C=ICODE    S=.itext   G=(none)   M=VarUtils ACBP=A9
 0002:00000144 000000AA C=ICODE    S=.itext   G=(none)   M=Variants ACBP=A9
 0002:000001F0 00000008 C=ICODE    S=.itext   G=(none)   M=TypInfo  ACBP=A9
 0002:000001F8 00000092 C=ICODE    S=.itext   G=(none)   M=Classes  ACBP=A9
 0002:0000028C 00000008 C=ICODE    S=.itext   G=(none)   M=t_SQL_types ACBP=A9
 0002:00000294 00000050 C=ICODE    S=.itext   G=(none)   M=u_Synchronizer ACBP=A9
 0002:000002E4 00000018 C=ICODE    S=.itext   G=(none)   M=t_ODBC_Connection ACBP=A9
 0002:000002FC 00000008 C=ICODE    S=.itext   G=(none)   M=IniFiles ACBP=A9
 0002:00000304 0000003B C=ICODE    S=.itext   G=(none)   M=u_PStoreTools ACBP=A9
 0002:00000340 00000014 C=ICODE    S=.itext   G=(none)   M=SevenZip ACBP=A9
 0002:00000354 00000008 C=ICODE    S=.itext   G=(none)   M=ALZLibExApi ACBP=A9
 0002:0000035C 0000003B C=ICODE    S=.itext   G=(none)   M=u_CompressBinaryData ACBP=A9
 0002:00000398 00000008 C=ICODE    S=.itext   G=(none)   M=u_Lang   ACBP=A9
 0002:000003A0 00000026 C=ICODE    S=.itext   G=(none)   M=u_DBMS_Provider ACBP=A9
 0002:000003C8 0000001D C=ICODE    S=.itext   G=(none)   M=TileStorage_DBMS ACBP=A9
 0003:00000000 00000788 C=DATA     S=.data    G=DGROUP   M=System   ACBP=A9
 0003:00000788 00000030 C=DATA     S=.data    G=DGROUP   M=SysInit  ACBP=A9
 0003:000007B8 00000250 C=DATA     S=.data    G=DGROUP   M=SysUtils ACBP=A9
 0003:00000A08 00000010 C=DATA     S=.data    G=DGROUP   M=ActiveX  ACBP=A9
 0003:00000A18 00000008 C=DATA     S=.data    G=DGROUP   M=VarUtils ACBP=A9
 0003:00000A20 00000076 C=DATA     S=.data    G=DGROUP   M=Variants ACBP=A9
 0003:00000A98 0000000C C=DATA     S=.data    G=DGROUP   M=TypInfo  ACBP=A9
 0003:00000AA4 00000084 C=DATA     S=.data    G=DGROUP   M=Classes  ACBP=A9
 0003:00000B28 00000480 C=DATA     S=.data    G=DGROUP   M=t_SQL_types ACBP=A9
 0003:00000FA8 00000008 C=DATA     S=.data    G=DGROUP   M=IniFiles ACBP=A9
 0003:00000FB0 00000058 C=DATA     S=.data    G=DGROUP   M=SevenZip ACBP=A9
 0003:00001008 000006CC C=DATA     S=.data    G=DGROUP   M=ZLib     ACBP=A9
 0003:000016D4 00003754 C=DATA     S=.data    G=DGROUP   M=ALZLibExApi ACBP=A9
 0003:00004E28 0000007C C=DATA     S=.data    G=DGROUP   M=ALZLibEx ACBP=A9
 0003:00004EA4 00000014 C=DATA     S=.data    G=DGROUP   M=u_CompressBinaryData ACBP=A9
 0003:00004EB8 00000008 C=DATA     S=.data    G=DGROUP   M=u_Tile_Parser ACBP=A9
 0003:00004EC0 0000004C C=DATA     S=.data    G=DGROUP   M=u_Lang   ACBP=A9
 0003:00004F0C 000000A8 C=DATA     S=.data    G=DGROUP   M=u_DBMS_Provider ACBP=A9
 0004:00000000 000027EC C=BSS      S=.bss     G=DGROUP   M=System   ACBP=A9
 0004:000027EC 00000010 C=BSS      S=.bss     G=DGROUP   M=SysInit  ACBP=A9
 0004:000027FC 00000008 C=BSS      S=.bss     G=DGROUP   M=Windows  ACBP=A9
 0004:00002804 00002108 C=BSS      S=.bss     G=DGROUP   M=SysUtils ACBP=A9
 0004:0000490C 0000005C C=BSS      S=.bss     G=DGROUP   M=VarUtils ACBP=A9
 0004:00004968 00000040 C=BSS      S=.bss     G=DGROUP   M=Variants ACBP=A9
 0004:000049A8 00000004 C=BSS      S=.bss     G=DGROUP   M=TypInfo  ACBP=A9
 0004:000049AC 00000034 C=BSS      S=.bss     G=DGROUP   M=Classes  ACBP=A9
 0004:000049E0 00000004 C=BSS      S=.bss     G=DGROUP   M=t_SQL_types ACBP=A9
 0004:000049E4 00000008 C=BSS      S=.bss     G=DGROUP   M=u_Synchronizer ACBP=A9
 0004:000049EC 00000008 C=BSS      S=.bss     G=DGROUP   M=t_ODBC_Connection ACBP=A9
 0004:000049F4 00000004 C=BSS      S=.bss     G=DGROUP   M=IniFiles ACBP=A9
 0004:000049F8 00000008 C=BSS      S=.bss     G=DGROUP   M=u_PStoreTools ACBP=A9
 0004:00004A00 00000004 C=BSS      S=.bss     G=DGROUP   M=SevenZip ACBP=A9
 0004:00004A04 00001984 C=BSS      S=.bss     G=DGROUP   M=ZLib     ACBP=A9
 0004:00006388 00000004 C=BSS      S=.bss     G=DGROUP   M=ALZLibExApi ACBP=A9
 0004:0000638C 00000008 C=BSS      S=.bss     G=DGROUP   M=u_CompressBinaryData ACBP=A9
 0004:00006394 00000004 C=BSS      S=.bss     G=DGROUP   M=u_Lang   ACBP=A9
 0004:00006398 00000004 C=BSS      S=.bss     G=DGROUP   M=u_DBMS_Provider ACBP=A9
 0005:00000000 00000008 C=TLS      S=.tls     G=(none)   M=System   ACBP=A9
 0005:00000008 00000004 C=TLS      S=.tls     G=(none)   M=Classes  ACBP=A9


  Address             Publics by Name

 0003:00000A08       ActiveX.GUID_NULL
 0001:0000DAA8       ActiveX.SysAllocString
 0001:0003425C       ALZLibEx..EZCompressionError
 0001:000342BC       ALZLibEx..EZDecompressionError
 0001:00034204       ALZLibEx..EZLibError
 0001:00034678       ALZLibEx.EZLibError.Create
 0001:000346CC       ALZLibEx.EZLibError.Create
 0001:00034320       ALZLibEx.ZCompressCheck
 0001:000345BC       ALZLibEx.ZCompressStream2
 0001:00034344       ALZLibEx.ZDecompressCheck
 0001:0003462C       ALZLibEx.ZDecompressStream2
 0003:00004E70       ALZLibEx.ZErrors
 0003:00004E88       ALZLibEx.ZFlushes
 0001:00034374       ALZLibEx.ZInternalCompressStream
 0001:00034490       ALZLibEx.ZInternalDecompressStream
 0003:00004E28       ALZLibEx.ZLevels
 0003:00004E5C       ALZLibEx.ZStrategies
 0001:00031934       ALZLibExApi...
 0003:00002E28       ALZLibExApi...
 0003:0000236C       ALZLibExApi...
 0001:00033900       ALZLibExApi...
 0003:00002240       ALZLibExApi...
 0003:000023BC       ALZLibExApi...
 0003:000017C4       ALZLibExApi...
 0001:0002F2B4       ALZLibExApi...
 0003:00001700       ALZLibExApi...
 0004:00006388       ALZLibExApi..2
 0001:00031428       ALZLibExApi.@inflate_fast
 0001:00030FEC       ALZLibExApi.@inflate_table
 0001:00032AE0       ALZLibExApi.@_tr_align
 0001:00032AD8       ALZLibExApi.@_tr_flush_bits
 0001:00032C30       ALZLibExApi.@_tr_flush_block
 0001:00031938       ALZLibExApi.@_tr_init
 0001:00032A1C       ALZLibExApi.@_tr_stored_block
 0001:00033598       ALZLibExApi.adler32
 0002:00000354       ALZLibExApi.ALZLibExApi
 0001:00033908       ALZLibExApi.crc32
 0001:0002D604       ALZLibExApi.deflate
 0001:0002DEEC       ALZLibExApi.deflateEnd
 0001:0002CE64       ALZLibExApi.deflateInit2_
 0001:0002CE48       ALZLibExApi.deflateInit_
 0001:0002D2B4       ALZLibExApi.deflateReset
 0001:000341BC       ALZLibExApi.Finalization
 0001:0002F614       ALZLibExApi.inflate
 0001:00030BF4       ALZLibExApi.inflateEnd
 0001:0002F3DC       ALZLibExApi.inflateInit2_
 0001:0002F480       ALZLibExApi.inflateInit_
 0001:0002F330       ALZLibExApi.inflateReset
 0001:0002CE2C       ALZLibExApi.memcpy
 0001:0002CE10       ALZLibExApi.memset
 0001:0002CDF4       ALZLibExApi.zcalloc
 0001:0002CE04       ALZLibExApi.zcfree
 0003:000016D4       ALZLibExApi.ZLIB_VERSION
 0003:000016D8       ALZLibExApi.z_errmsg
 0003:00002B27       ALZLibExApi._dist_code
 0003:00002D27       ALZLibExApi._length_code
 0001:0002CE40       ALZLibExApi._llmod
 0001:000349A0       ALZLibExGZ.GZCompressStream
 0001:00034778       ALZLibExGZ.GZCompressStream
 0001:00034D44       ALZLibExGZ.GZDecompressStream
 0001:000349B4       ALZLibExGZ.GZDecompressStream
 0004:000049B4       Classes..95
 0001:00011784       Classes..EFCreateError
 0001:00011838       Classes..EFilerError
 0001:00011724       Classes..EFileStreamError
 0001:000117E0       Classes..EFOpenError
 0001:00011940       Classes..EListError
 0001:00011890       Classes..EReadError
 0001:000116C8       Classes..EStreamError
 0001:00011998       Classes..EStringListError
 0001:000118E8       Classes..EWriteError
 0001:00011F48       Classes..TCustomMemoryStream
 0001:00011EC0       Classes..TFileStream
 0001:00011E48       Classes..THandleStream
 0001:000119F8       Classes..TList
 0001:00011FC4       Classes..TMemoryStream
 0001:00011AB4       Classes..TPersistent
 0001:00012040       Classes..TRegGroup
 0001:00012098       Classes..TRegGroups
 0001:00011DD8       Classes..TStream
 0001:00011CC0       Classes..TStringList
 0001:00011B88       Classes..TStrings
 0001:00011A5C       Classes..TThreadList
 0001:0001551C       Classes.BinToHex
 0002:000001F8       Classes.Classes
 0003:00000AA4       Classes.Convert
 0003:00000AB4       Classes.Convert
 0001:000155E4       Classes.DoneThreadSynchronization
 0001:00012B64       Classes.DoWrite
 0001:00015670       Classes.Finalization
 0004:000049C0       Classes.FindGlobalComponentProcs
 0001:000155FC       Classes.FreeIntConstList
 0004:000049C4       Classes.GlobalFixupList
 0005:00000008       Classes.GlobalLists
 0004:000049AC       Classes.GlobalNameSpace
 0001:00015558       Classes.HexToBin
 0001:000155B0       Classes.InitThreadSynchronization
 0004:000049B8       Classes.IntConstList
 0001:00015668       Classes.ModuleUnload
 0001:0001218C       Classes.PointerInModule
 0001:00014D7C       Classes.PropValueError
 0001:00014514       Classes.RaiseException
 0001:00014D64       Classes.ReadError
 0004:000049BC       Classes.RegGroups
 0001:00014C34       Classes.RemoveFixupReferences
 0001:00014CE0       Classes.RemoveFixups
 0001:000124A8       Classes.ReturnAddr
 0001:00012CC4       Classes.ReturnAddr
 0001:000150C8       Classes.SkipBinary
 0001:000150F8       Classes.SkipCollection
 0001:000150A0       Classes.SkipList
 0001:0001433C       Classes.StringListCompareStrings
 0004:000049B0       Classes.SyncEvent
 0003:00000B24       Classes.SyncList
 0001:00014A70       Classes.TCustomMemoryStream.Read
 0001:00014AA8       Classes.TCustomMemoryStream.Seek
 0001:00014A68       Classes.TCustomMemoryStream.SetPointer
 0001:0001487C       Classes.TFileStream.Create
 0001:000148C0       Classes.TFileStream.Create
 0001:00014A34       Classes.TFileStream.Destroy
 0001:000147B8       Classes.THandleStream.Create
 0001:000147F4       Classes.THandleStream.Read
 0001:00014814       Classes.THandleStream.Seek
 0001:00014854       Classes.THandleStream.SetSize
 0001:00014840       Classes.THandleStream.SetSize
 0001:00014804       Classes.THandleStream.Write
 0004:000049C8       Classes.ThreadLock
 0001:00012400       Classes.TList.Add
 0001:00012434       Classes.TList.Clear
 0001:0001244C       Classes.TList.Delete
 0001:000123E0       Classes.TList.Destroy
 0001:000124E4       Classes.TList.Error
 0001:000124AC       Classes.TList.Error
 0001:00012664       Classes.TList.Extract
 0001:00012538       Classes.TList.Get
 0001:00012560       Classes.TList.Grow
 0001:00012594       Classes.TList.IndexOf
 0001:000126A0       Classes.TList.Notify
 0001:000125B4       Classes.TList.SetCapacity
 0001:000125F0       Classes.TList.SetCount
 0001:00014AF8       Classes.TMemoryStream.Clear
 0001:00014ACC       Classes.TMemoryStream.Destroy
 0001:00014B64       Classes.TMemoryStream.Realloc
 0001:00014B10       Classes.TMemoryStream.SetCapacity
 0001:00014B38       Classes.TMemoryStream.SetSize
 0001:00014BE4       Classes.TMemoryStream.Write
 0001:000127C0       Classes.TPersistent.Assign
 0001:000127D4       Classes.TPersistent.AssignError
 0001:000128A4       Classes.TPersistent.AssignTo
 0001:000128AC       Classes.TPersistent.DefineProperties
 0001:00012794       Classes.TPersistent.Destroy
 0001:000128B0       Classes.TPersistent.GetNamePath
 0001:00012960       Classes.TPersistent.GetOwner
 0001:00014D88       Classes.TReader.CheckValue
 0001:00014DAC       Classes.TReader.EndOfList
 0001:00014DC0       Classes.TReader.NextValue
 0001:00014DD0       Classes.TReader.Read
 0001:00014E1C       Classes.TReader.ReadBuffer
 0001:00014E58       Classes.TReader.ReadListBegin
 0001:00014E60       Classes.TReader.ReadListEnd
 0001:00014E68       Classes.TReader.ReadStr
 0001:00014EA4       Classes.TReader.ReadString
 0001:00015044       Classes.TReader.ReadValue
 0001:00014F60       Classes.TReader.ReadWideString
 0001:0001534C       Classes.TReader.SkipBytes
 0001:00015304       Classes.TReader.SkipProperty
 0001:00015058       Classes.TReader.SkipSetBody
 0001:00015154       Classes.TReader.SkipValue
 0001:000120F0       Classes.TRegGroup.Create
 0001:0001214C       Classes.TRegGroup.Destroy
 0001:000121AC       Classes.TRegGroup.UnregisterModuleClasses
 0001:00012258       Classes.TRegGroups.Create
 0001:000122CC       Classes.TRegGroups.Destroy
 0001:0001232C       Classes.TRegGroups.Lock
 0001:00012338       Classes.TRegGroups.Unlock
 0001:00012344       Classes.TRegGroups.UnregisterModuleClasses
 0001:000146C4       Classes.TStream.CopyFrom
 0001:00014428       Classes.TStream.GetPosition
 0001:0001445C       Classes.TStream.GetSize
 0001:00014654       Classes.TStream.ReadBuffer
 0001:000145E4       Classes.TStream.Seek
 0001:00014560       Classes.TStream.Seek
 0001:00014448       Classes.TStream.SetPosition
 0001:000144A8       Classes.TStream.SetSize
 0001:000144C0       Classes.TStream.SetSize
 0001:000144AC       Classes.TStream.SetSize64
 0001:0001468C       Classes.TStream.WriteBuffer
 0001:00013DC8       Classes.TStringList.Add
 0001:00013DD8       Classes.TStringList.AddObject
 0001:00013E3C       Classes.TStringList.Changed
 0001:00013E58       Classes.TStringList.Changing
 0001:00013E74       Classes.TStringList.Clear
 0001:000143A4       Classes.TStringList.CompareStrings
 0001:0001436C       Classes.TStringList.CustomSort
 0001:00013EB4       Classes.TStringList.Delete
 0001:00013D6C       Classes.TStringList.Destroy
 0001:00013F20       Classes.TStringList.Exchange
 0001:00013F7C       Classes.TStringList.ExchangeItems
 0001:00013FA0       Classes.TStringList.Find
 0001:00014024       Classes.TStringList.Get
 0001:00014058       Classes.TStringList.GetCapacity
 0001:0001405C       Classes.TStringList.GetCount
 0001:00014060       Classes.TStringList.GetObject
 0001:00014088       Classes.TStringList.Grow
 0001:000140BC       Classes.TStringList.IndexOf
 0001:000140F8       Classes.TStringList.Insert
 0001:0001415C       Classes.TStringList.InsertItem
 0001:00014108       Classes.TStringList.InsertObject
 0001:000141D8       Classes.TStringList.Put
 0001:00014234       Classes.TStringList.PutObject
 0001:00014274       Classes.TStringList.QuickSort
 0001:00014308       Classes.TStringList.SetCapacity
 0001:00014324       Classes.TStringList.SetUpdateState
 0001:0001435C       Classes.TStringList.Sort
 0001:00012994       Classes.TStrings.Add
 0001:000129B8       Classes.TStrings.AddObject
 0001:000129DC       Classes.TStrings.AddStrings
 0001:00012A94       Classes.TStrings.Assign
 0001:00012B4C       Classes.TStrings.BeginUpdate
 0001:00013C54       Classes.TStrings.CompareStrings
 0001:00012BBC       Classes.TStrings.DefineProperties
 0001:00012964       Classes.TStrings.Destroy
 0001:00012C08       Classes.TStrings.EndUpdate
 0001:00012C1C       Classes.TStrings.Equals
 0001:00012CC8       Classes.TStrings.Error
 0001:00012D00       Classes.TStrings.Error
 0001:00012D58       Classes.TStrings.Exchange
 0001:00012E44       Classes.TStrings.ExtractName
 0001:00012EC0       Classes.TStrings.GetCapacity
 0001:00013B58       Classes.TStrings.GetDelimiter
 0001:00013B70       Classes.TStrings.GetLineBreak
 0001:00012EC8       Classes.TStrings.GetName
 0001:00013C98       Classes.TStrings.GetNameValueSeparator
 0001:00012F28       Classes.TStrings.GetObject
 0001:00013BA4       Classes.TStrings.GetQuoteChar
 0001:00013BBC       Classes.TStrings.GetStrictDelimiter
 0001:00012F2C       Classes.TStrings.GetText
 0001:00012F80       Classes.TStrings.GetTextStr
 0001:000130B8       Classes.TStrings.GetValue
 0001:00013CCC       Classes.TStrings.GetValueFromIndex
 0001:00013144       Classes.TStrings.IndexOf
 0001:000131D0       Classes.TStrings.IndexOfName
 0001:000132A4       Classes.TStrings.IndexOfObject
 0001:000132D8       Classes.TStrings.InsertObject
 0001:00013308       Classes.TStrings.LoadFromFile
 0001:0001335C       Classes.TStrings.LoadFromStream
 0001:00013408       Classes.TStrings.Move
 0001:000134B8       Classes.TStrings.Put
 0001:000134E8       Classes.TStrings.PutObject
 0001:000134EC       Classes.TStrings.ReadData
 0001:0001359C       Classes.TStrings.SaveToFile
 0001:000135F4       Classes.TStrings.SaveToStream
 0001:00013654       Classes.TStrings.SetCapacity
 0001:000139BC       Classes.TStrings.SetDelimitedText
 0001:00013BD4       Classes.TStrings.SetDelimiter
 0001:00013BF0       Classes.TStrings.SetLineBreak
 0001:00013CB0       Classes.TStrings.SetNameValueSeparator
 0001:00013C1C       Classes.TStrings.SetQuoteChar
 0001:00013C38       Classes.TStrings.SetStrictDelimiter
 0001:00013658       Classes.TStrings.SetStringsAdapter
 0001:0001368C       Classes.TStrings.SetText
 0001:000136DC       Classes.TStrings.SetTextStr
 0001:00013880       Classes.TStrings.SetUpdateState
 0001:00013884       Classes.TStrings.SetValue
 0001:00013938       Classes.TStrings.WriteData
 0001:000126A4       Classes.TThreadList.Create
 0001:000126F8       Classes.TThreadList.Destroy
 0001:00012774       Classes.TThreadList.LockList
 0001:00012788       Classes.TThreadList.UnlockList
 0001:00015394       Classes.TWriter.Write
 0001:000153E0       Classes.TWriter.WriteBuffer
 0001:000153F8       Classes.TWriter.WriteListBegin
 0001:00015400       Classes.TWriter.WriteListEnd
 0001:00015408       Classes.TWriter.WriteMinStr
 0001:000154B4       Classes.TWriter.WriteString
 0001:00015508       Classes.TWriter.WriteValue
 0001:00012394       Classes.UnRegisterModuleClasses
 0001:0001E328       Contnrs..TObjectList
 0001:0001E390       Contnrs.TObjectList.Add
 0001:0001E398       Contnrs.TObjectList.Create
 0001:0001E3D4       Contnrs.TObjectList.GetItem
 0001:0001E3E8       Contnrs.TObjectList.Notify
 0001:00034718       DateUtils.DateTimeToUnix
 0001:0003474C       DateUtils.UnixToDateTime
 0004:000049F4       IniFiles..8
 0001:0001D150       IniFiles..EIniFileException
 0001:0001D1B0       IniFiles..TCustomIniFile
 0001:0001D280       IniFiles..TIniFile
 0001:0001E2E0       IniFiles.Finalization
 0002:000002FC       IniFiles.IniFiles
 0001:0001D338       IniFiles.TCustomIniFile.Create
 0001:0001DA50       IniFiles.TCustomIniFile.ReadBinaryStream
 0001:0001D50C       IniFiles.TCustomIniFile.ReadBool
 0001:0001D538       IniFiles.TCustomIniFile.ReadDate
 0001:0001D5F0       IniFiles.TCustomIniFile.ReadDateTime
 0001:0001D6A8       IniFiles.TCustomIniFile.ReadFloat
 0001:0001D3E0       IniFiles.TCustomIniFile.ReadInteger
 0001:0001DD40       IniFiles.TCustomIniFile.ReadSections
 0001:0001D760       IniFiles.TCustomIniFile.ReadTime
 0001:0001D374       IniFiles.TCustomIniFile.SectionExists
 0001:0001D9E0       IniFiles.TCustomIniFile.ValueExists
 0001:0001DBCC       IniFiles.TCustomIniFile.WriteBinaryStream
 0001:0001D9C4       IniFiles.TCustomIniFile.WriteBool
 0001:0001D818       IniFiles.TCustomIniFile.WriteDate
 0001:0001D880       IniFiles.TCustomIniFile.WriteDateTime
 0001:0001D8E0       IniFiles.TCustomIniFile.WriteFloat
 0001:0001D4B0       IniFiles.TCustomIniFile.WriteInteger
 0001:0001D944       IniFiles.TCustomIniFile.WriteTime
 0001:0001E294       IniFiles.TIniFile.DeleteKey
 0001:0001DDF4       IniFiles.TIniFile.Destroy
 0001:0001E240       IniFiles.TIniFile.EraseSection
 0001:0001DFEC       IniFiles.TIniFile.ReadSection
 0001:0001DEEC       IniFiles.TIniFile.ReadSections
 0001:0001E0F4       IniFiles.TIniFile.ReadSectionValues
 0001:0001DE20       IniFiles.TIniFile.ReadString
 0001:0001E2C4       IniFiles.TIniFile.UpdateFile
 0001:0001DE80       IniFiles.TIniFile.WriteString
 0003:00000FA8       IniFiles.Values
 0001:0001E414       NativeNTAPI.NtQueryValueKey
 0001:0001E41C       NativeNTAPI.NtSetValueKey
 0001:0001E424       NTRegistry.InternalPrepareRegValue
 0001:0001E494       NTRegistry.NTRegistryClearInfo
 0001:0001E4B8       NTRegistry.NTRegistryReadBuffer
 0001:0001E5D8       NTRegistry.NTRegistrySaveBuffer
 0001:00017904       odbcsql.SQLAllocHandle
 0001:00017974       odbcsql.SQLBindCol
 0001:00017984       odbcsql.SQLBindParameter
 0001:00017944       odbcsql.SQLCloseCursor
 0001:00017924       odbcsql.SQLConnectA
 0001:0001797C       odbcsql.SQLDataSourcesA
 0001:0001795C       odbcsql.SQLDescribeColA
 0001:0001792C       odbcsql.SQLDisconnect
 0001:00017934       odbcsql.SQLDriverConnectA
 0001:0001793C       odbcsql.SQLExecDirectA
 0001:0001794C       odbcsql.SQLFetch
 0001:00017914       odbcsql.SQLFreeHandle
 0001:0001798C       odbcsql.SQLFreeStmt
 0001:00017964       odbcsql.SQLGetData
 0001:0001791C       odbcsql.SQLGetDiagRecA
 0001:0001796C       odbcsql.SQLGetInfoA
 0001:00017954       odbcsql.SQLNumResultCols
 0001:0001790C       odbcsql.SQLSetEnvAttr
 0001:00017994       odbcsql.SQL_SUCCEEDED
 0004:00004A00       SevenZip..2
 0001:00021ADC       SevenZip..T7zArchive
 0001:000230F4       SevenZip..T7zBatchItem
 0001:00021E90       SevenZip..T7zInArchive
 0001:000220EC       SevenZip..T7zOutArchive
 0001:00021A80       SevenZip..T7zPlugin
 0001:0002181C       SevenZip..T7zStream
 0003:00000FB0       SevenZip.CLSID_CFormat7z
 0001:00022164       SevenZip.CreateInArchive
 0001:0002219C       SevenZip.CreateOutArchive
 0001:00023BCC       SevenZip.Finalization
 0003:00000FC0       SevenZip.MAXCHECK
 0001:000219A0       SevenZip.RINOK
 0003:00000FF0       SevenZip.SevCompressionMethod
 0002:00000340       SevenZip.SevenZip
 0001:000219FC       SevenZip.SevenZipSetCompressionMethod
 0001:00022EA8       SevenZip.T7zArchive.Create
 0001:00022F78       SevenZip.T7zArchive.GetClassId
 0001:00022F88       SevenZip.T7zArchive.SetClassId
 0001:00023168       SevenZip.T7zBatchItem.Destroy
 0001:0002237C       SevenZip.T7zInArchive.Close
 0001:000223A4       SevenZip.T7zInArchive.Create
 0001:000229E0       SevenZip.T7zInArchive.CryptoGetTextPassword
 0001:000223FC       SevenZip.T7zInArchive.Destroy
 0001:00022CB0       SevenZip.T7zInArchive.ExtractAll
 0001:00022714       SevenZip.T7zInArchive.ExtractItem
 0001:00022B8C       SevenZip.T7zInArchive.ExtractItems
 0001:00022DB4       SevenZip.T7zInArchive.ExtractTo
 0001:00022430       SevenZip.T7zInArchive.GetInArchive
 0001:0002269C       SevenZip.T7zInArchive.GetItemIsFolder
 0001:00022ACC       SevenZip.T7zInArchive.GetItemName
 0001:00022480       SevenZip.T7zInArchive.GetItemPath
 0001:000226FC       SevenZip.T7zInArchive.GetItemProp
 0001:00022B2C       SevenZip.T7zInArchive.GetItemSize
 0001:000224E0       SevenZip.T7zInArchive.GetNumberOfItems
 0001:00022A7C       SevenZip.T7zInArchive.GetProperty
 0001:0002280C       SevenZip.T7zInArchive.GetStream
 0001:00022A88       SevenZip.T7zInArchive.GetStream
 0001:00022504       SevenZip.T7zInArchive.OpenFile
 0001:000225FC       SevenZip.T7zInArchive.OpenStream
 0001:00022960       SevenZip.T7zInArchive.PrepareOperation
 0001:0002296C       SevenZip.T7zInArchive.SetCompleted
 0001:00022998       SevenZip.T7zInArchive.SetCompleted
 0001:000229A4       SevenZip.T7zInArchive.SetOperationResult
 0001:00022E80       SevenZip.T7zInArchive.SetPassword
 0001:00022A94       SevenZip.T7zInArchive.SetPasswordCallback
 0001:00022C98       SevenZip.T7zInArchive.SetProgressCallback
 0001:00022AAC       SevenZip.T7zInArchive.SetSubArchiveName
 0001:000229D4       SevenZip.T7zInArchive.SetTotal
 0001:000229B0       SevenZip.T7zInArchive.SetTotal
 0001:000231A8       SevenZip.T7zOutArchive.AddFile
 0001:0002354C       SevenZip.T7zOutArchive.AddFiles
 0001:000235FC       SevenZip.T7zOutArchive.AddStream
 0001:00023678       SevenZip.T7zOutArchive.ClearBatch
 0001:0002368C       SevenZip.T7zOutArchive.Create
 0001:000236E0       SevenZip.T7zOutArchive.CryptoGetTextPassword2
 0001:00023720       SevenZip.T7zOutArchive.Destroy
 0001:0002375C       SevenZip.T7zOutArchive.GetOutArchive
 0001:000237AC       SevenZip.T7zOutArchive.GetProperty
 0001:00023894       SevenZip.T7zOutArchive.GetStream
 0001:00023920       SevenZip.T7zOutArchive.GetUpdateItemInfo
 0001:00023944       SevenZip.T7zOutArchive.SaveToFile
 0001:000239A0       SevenZip.T7zOutArchive.SaveToStream
 0001:00023A8C       SevenZip.T7zOutArchive.SetCompleted
 0001:00023AB8       SevenZip.T7zOutArchive.SetOperationResult
 0001:00023AC4       SevenZip.T7zOutArchive.SetPassword
 0001:00023ADC       SevenZip.T7zOutArchive.SetProgressCallback
 0001:00023AF4       SevenZip.T7zOutArchive.SetPropertie
 0001:00023BA8       SevenZip.T7zOutArchive.SetTotal
 0001:000221D4       SevenZip.T7zPlugin.Create
 0001:00022314       SevenZip.T7zPlugin.CreateObject
 0001:000222E0       SevenZip.T7zPlugin.Destroy
 0001:00022F98       SevenZip.T7zStream.Create
 0001:00022FE4       SevenZip.T7zStream.Destroy
 0001:00023020       SevenZip.T7zStream.Flush
 0001:0002302C       SevenZip.T7zStream.GetSize
 0001:00023050       SevenZip.T7zStream.Read
 0001:00023078       SevenZip.T7zStream.Seek
 0001:000230B0       SevenZip.T7zStream.SetSize
 0001:000230CC       SevenZip.T7zStream.Write
 0001:00023250       SevenZip.Traverse
 0003:00000FC8       SevenZip.ZipCompressionMethod
 0003:00000FE0       SevenZip.ZipEncryptionMethod
 0001:0001C484       StrUtils.PosEx
 0001:000056B8       SysInit.@GetTls
 0001:00005704       SysInit.@InitLib
 0001:000055D8       SysInit.AllocTlsBuffer
 0004:000027F4       SysInit.DllProc
 0001:00005694       SysInit.ExitProcessTLS
 0001:0000565C       SysInit.ExitThreadTLS
 0001:000055E4       SysInit.GetTlsSize
 0004:000027F0       SysInit.HInstance
 0001:000056F8       SysInit.InitializeModule
 0001:00005630       SysInit.InitProcessTLS
 0001:000055EC       SysInit.InitThreadTLS
 0001:000055A8       SysInit.LocalAlloc
 0001:000055B0       SysInit.LocalFree
 0003:00000790       SysInit.Module
 0004:000027ED       SysInit.ModuleIsCpp
 0004:000027EC       SysInit.ModuleIsLib
 0003:0000078C       SysInit.PtrToNil
 0001:000055B8       SysInit.TlsAlloc
 0004:000027F8       SysInit.tlsBuffer
 0001:000055C0       SysInit.TlsFree
 0001:000055C8       SysInit.TlsGetValue
 0003:00000788       SysInit.TlsIndex
 0005:0000000C       SysInit.TlsLast
 0003:000007A8       SysInit.TlsProc
 0001:000055D0       SysInit.TlsSetValue
 0004:000005B0       System..6
 0001:00000110       System..TInterfacedObject
 0001:0000001C       System..TObject
 0001:000020C0       System.@AbstractError
 0001:00002AF4       System.@AfterConstruction
 0001:000029E8       System.@AsClass
 0001:00003648       System.@Assert
 0001:000021C4       System.@AStrCmp
 0001:00002B44       System.@BeforeDestruction
 0001:00002798       System.@BoundErr
 0001:00002A34       System.@CallDynaInst
 0001:00002A9C       System.@ClassCreate
 0001:00002AEC       System.@ClassDestroy
 0001:00002130       System.@Close
 0001:00001F50       System.@Copy
 0001:00004584       System.@CopyArray
 0001:00004468       System.@CopyRecord
 0001:000046A0       System.@DispCallByIDError
 0001:00004690       System.@Dispose
 0001:00003068       System.@DoneExcept
 0001:0000494C       System.@DynArrayAsg
 0001:00004910       System.@DynArrayClear
 0001:00004750       System.@DynArrayHigh
 0001:00004748       System.@DynArrayLength
 0001:00004904       System.@DynArraySetLength
 0001:00003150       System.@ExceptionHandler
 0001:00002234       System.@FillChar
 0001:00004444       System.@Finalize
 0001:00004358       System.@FinalizeArray
 0001:0000430C       System.@FinalizeRecord
 0001:0000278C       System.@FpuInit
 0001:000026C8       System.@FpuMaskInit
 0001:00001DE0       System.@FreeMem
 0001:00001DC4       System.@GetMem
 0001:00003630       System.@Halt
 0001:00003554       System.@Halt0
 0001:00002C58       System.@HandleAnyException
 0001:00002F0C       System.@HandleFinally
 0001:00002FB4       System.@HandleFinallyInternal
 0001:00002D84       System.@HandleOnException
 0001:00004300       System.@Initialize
 0001:0000426C       System.@InitializeArray
 0001:0000423C       System.@InitializeRecord
 0001:000033F4       System.@InitImports
 0001:000033CC       System.@InitResStringImports
 0001:00003418       System.@InitWideStrings
 0001:00005054       System.@IntfAddRef
 0001:00005024       System.@IntfCast
 0001:00004FE0       System.@IntfClear
 0001:00004FF8       System.@IntfCopy
 0001:000027A0       System.@IntOver
 0001:000029C4       System.@IsClass
 0001:00002698       System.@isNECWindows
 0001:00003AE8       System.@LStrAddRef
 0001:0000368C       System.@LStrArrayClr
 0001:000036BC       System.@LStrAsg
 0001:00003934       System.@LStrCat
 0001:00003980       System.@LStrCat3
 0001:000039FC       System.@LStrCatN
 0001:00003668       System.@LStrClr
 0001:00003A90       System.@LStrCmp
 0001:00003B60       System.@LStrCopy
 0001:00003BA0       System.@LStrDelete
 0001:000038D8       System.@LStrFromArray
 0001:00003850       System.@LStrFromChar
 0001:00003860       System.@LStrFromPChar
 0001:00003758       System.@LStrFromPCharLen
 0001:00003890       System.@LStrFromPWChar
 0001:000037C4       System.@LStrFromPWCharLen
 0001:000038CC       System.@LStrFromString
 0001:000038F0       System.@LStrFromWStr
 0001:00003BE8       System.@LStrInsert
 0001:00003700       System.@LStrLAsg
 0001:00003928       System.@LStrLen
 0001:00003D88       System.@LStrSetLength
 0001:00003AF8       System.@LStrToPChar
 0001:00003904       System.@LStrToString
 0001:0000467C       System.@New
 0001:0000372C       System.@NewAnsiString
 0001:00003DF4       System.@NewWideString
 0001:000023AC       System.@Pow10
 0001:000021B8       System.@PStrCpy
 0001:00002188       System.@PStrNCat
 0001:00003014       System.@RaiseAgain
 0001:00002FEC       System.@RaiseExcept
 0001:00001DF8       System.@ReallocMem
 0001:000020B4       System.@ROUND
 0001:0000363C       System.@RunError
 0001:00003304       System.@StartLib
 0001:00000218       System.@strlen
 0001:00003098       System.@TryFinallyExit
 0001:00003B58       System.@UniqueStringA
 0001:000022D0       System.@ValLong
 0001:00004340       System.@VarClr
 0001:00004450       System.@VarCopy
 0001:0000421C       System.@WStrAddRef
 0001:00003E34       System.@WStrArrayClr
 0001:00003E58       System.@WStrAsg
 0001:00003FA0       System.@WStrCat
 0001:00004000       System.@WStrCat3
 0001:00004070       System.@WStrCatN
 0001:00003E1C       System.@WStrClr
 0001:000040B8       System.@WStrCmp
 0001:0000413C       System.@WStrCopy
 0001:00003F74       System.@WStrFromLStr
 0001:00003E88       System.@WStrFromPCharLen
 0001:00003F38       System.@WStrFromPWChar
 0001:00003F14       System.@WStrFromPWCharLen
 0001:00003E80       System.@WStrLAsg
 0001:00003F94       System.@WStrLen
 0001:000041D8       System.@WStrSetLength
 0001:00003F84       System.@WStrToPWChar
 0001:00001F20       System.@_IOTest
 0001:000046CC       System.@_llmod
 0001:000046A8       System.@_llmul
 0004:00000028       System.AbstractErrorProc
 0001:00001E88       System.AcquireExceptionObject
 0001:00004E80       System.AddModuleUnloadProc
 0001:00004E70       System.AddModuleUnloadProc
 0001:0000067C       System.AllocateLargeBlock
 0001:00001DAC       System.AllocMem
 0001:000005BC       System.AllocNewSequentialFeedMediumPool
 0004:000005B8       System.AllocSize2SmallBlockTypeIndX4
 0001:00005498       System.AnsiToUtf8
 0001:00001350       System.AppendStringToBuffer
 0004:00000020       System.AssertErrorProc
 0001:00000550       System.BinMediumSequentialFeedRemainder
 0001:00001B5C       System.BuildBlockTypeLookupTable
 0001:00001234       System.CardinalToStrBuf
 0001:00003788       System.CharFromWChar
 0001:00000198       System.CharNext
 0001:00002BD4       System.CheckJmp
 0001:00001598       System.CheckSmallBlockPoolForLeaks
 0004:0000003C       System.CmdLine
 0004:00000038       System.CmdShow
 0001:00004758       System.CopyArray
 0003:00000038       System.Copyright
 0003:00000024       System.DebugHook
 0003:00000020       System.Default8087CW
 0004:000005B4       System.DefaultSystemCodePage
 0001:0000499C       System.DelayLoadResourceModule
 0001:000002BC       System.DestroyWindow
 0003:00000778       System.dig
 0004:00000000       System.DispCallByIDProc
 0001:00004770       System.DynArrayClear
 0001:00004778       System.DynArraySetLength
 0003:00000750       System.errCaption
 0001:00001F14       System.Error
 0003:00000004       System.ErrorAddr
 0001:00001EC8       System.ErrorAt
 0004:00000008       System.ErrorProc
 0004:000003E0       System.ErrOutput
 0001:00001E68       System.ExceptAddr
 0004:0000000C       System.ExceptClsProc
 0004:0000001C       System.ExceptionClass
 0001:00001E48       System.ExceptObject
 0004:00000010       System.ExceptObjProc
 0004:00000004       System.ExceptProc
 0003:00000000       System.ExitCode
 0001:00003498       System.ExitDll
 0004:00000040       System.ExitProc
 0001:000001A0       System.ExitProcess
 0004:00000024       System.ExitProcessProc
 0004:000027B4       System.ExpectedMemoryLeaks
 0004:000027B8       System.ExpectedMemoryLeaksListLocked
 0003:00000008       System.FileMode
 0001:00005548       System.Finalization
 0001:00004768       System.FinalizeArray
 0001:00001D58       System.FinalizeMemoryManager
 0001:00003238       System.FinalizeUnits
 0001:00004A1C       System.FindBS
 0001:000001B0       System.FindClose
 0001:000001B8       System.FindFirstFile
 0001:00004974       System.FindHInstance
 0001:000049E4       System.FindResourceHInstance
 0001:00002124       System.Flush
 0001:000023A4       System.FPower10
 0001:00001CC8       System.FreeAllMemory
 0001:000006E0       System.FreeLargeBlock
 0001:000001C0       System.FreeLibrary
 0001:00005100       System.FreeMemory
 0001:00005540       System.GetACP
 0001:00000280       System.GetCmdShow
 0001:000001C8       System.GetCommandLine
 0001:00000278       System.GetCurrentThreadId
 0001:00002A04       System.GetDynaMethod
 0001:000011F8       System.GetFirstAndLastSmallBlockInPool
 0001:000011B8       System.GetFirstMediumBlockInPool
 0001:00002690       System.GetKeyboardType
 0001:000001D0       System.GetLocaleInfo
 0001:000050F0       System.GetMemory
 0001:000001D8       System.GetModuleFileName
 0001:000001E0       System.GetModuleHandle
 0001:00001464       System.GetObjectClass
 0001:000001E8       System.GetProcAddress
 0001:000001F0       System.GetStartupInfo
 0001:00000170       System.GetStdHandle
 0001:000001F8       System.GetThreadLocale
 0004:000027C0       System.InitContext
 0001:00001BA0       System.InitializeMemoryManager
 0001:0000329C       System.InitUnits
 0005:00000004       System.InOutRes
 0004:00000048       System.Input
 0001:000004F0       System.InsertMediumBlockIntoBin
 0001:00000270       System.InterlockedDecrement
 0001:00000268       System.InterlockedIncrement
 0001:000020DC       System.InternalFlush
 0001:000013E4       System.InternalIsValidClass
 0001:00003B0C       System.InternalUniqueString
 0001:000028BC       System.InvokeImplGetter
 0001:00001F94       System.IOResult
 0004:00000044       System.IsConsole
 0004:00000034       System.IsLibrary
 0004:00000045       System.IsMultiThread
 0001:00001368       System.IsValidVMTAddress
 0003:00000028       System.JITEnable
 0004:000027A4       System.LargeBlocksCircularList
 0004:000027A0       System.LargeBlocksLocked
 0004:00000714       System.LastSequentiallyFedMediumBlock
 0003:00000030       System.LibModuleList
 0001:00000200       System.LoadLibraryEx
 0001:00004C00       System.LoadResourceModule
 0001:000054E8       System.LoadResString
 0001:00000208       System.LoadString
 0001:00000324       System.LockCmpxchg
 0001:0000148C       System.LockExpectedMemoryLeaksList
 0001:00000634       System.LockLargeBlocks
 0001:00000210       System.lstrcpyn
 0004:0000002C       System.MainInstance
 0004:00000030       System.MainThreadID
 0001:00003434       System.MakeErrorMessage
 0001:000030B0       System.MapToRunError
 0004:00000720       System.MediumBlockBinBitmaps
 0004:0000071C       System.MediumBlockBinGroupBitmap
 0004:000007A0       System.MediumBlockBins
 0004:00000700       System.MediumBlockPoolsCircularList
 0004:00000710       System.MediumBlocksLocked
 0004:00000718       System.MediumSequentialFeedBytesLeft
 0003:0000071C       System.MemoryManager
 0001:000001A8       System.MessageBox
 0004:000006FE       System.MinimumBlockAlignment
 0004:000027BC       System.MMSharingWindow
 0003:00000034       System.ModuleUnloadList
 0001:00001FB4       System.Move
 0001:0000032C       System.Move12
 0001:00000340       System.Move20
 0001:00000360       System.Move28
 0001:0000038C       System.Move36
 0001:000003AC       System.Move44
 0001:000003D0       System.Move52
 0001:000003FC       System.Move60
 0001:0000042C       System.Move68
 0001:00000464       System.MoveX16L4
 0001:00000494       System.MoveX8L4
 0001:00000220       System.MultiByteToWideChar
 0004:000005AD       System.NeverSleepOnMMThreadContention
 0001:00001194       System.NextMediumBlock
 0003:0000002C       System.NoErrMsg
 0001:00002BC0       System.NotifyAnyExcept
 0001:00002B94       System.NotifyExcept
 0001:00002BF4       System.NotifyExceptFinally
 0001:00004F04       System.NotifyModuleUnload
 0001:00002B70       System.NotifyNonDelphiException
 0001:00002BAC       System.NotifyOnExcept
 0001:00002B54       System.NotifyReRaise
 0001:00002C1C       System.NotifyTerminate
 0001:00002C38       System.NotifyUnhandled
 0004:00000214       System.Output
 0001:00003C44       System.Pos
 0001:00004188       System.Pos
 0001:00000178       System.RaiseException
 0004:00000014       System.RaiseExceptionProc
 0005:00000000       System.RaiseListPtr
 0001:00000784       System.ReallocateLargeBlock
 0001:00000228       System.RegCloseKey
 0001:00004F60       System.RegisterModule
 0001:00000230       System.RegOpenKeyEx
 0001:00000238       System.RegQueryValueEx
 0003:00000734       System.reMap
 0001:000004B0       System.RemoveMediumFreeBlock
 0001:00004E78       System.RemoveModuleUnloadProc
 0001:00004EA0       System.RemoveModuleUnloadProc
 0004:000005AC       System.ReportMemoryLeaksOnShutdown
 0001:00000180       System.RtlUnwind
 0004:00000018       System.RTLUnwindProc
 0003:00000758       System.runErrMsg
 0001:00001EBC       System.RunErrorAt
 0001:000016E4       System.ScanForMemoryLeaks
 0001:000031F0       System.SetExceptionHandler
 0001:00001F40       System.SetInOutRes
 0001:000002B4       System.Sleep
 0003:0000003C       System.SmallBlockTypes
 0001:00001164       System.SysAllocMem
 0001:00000250       System.SysAllocStringLen
 0001:00000C54       System.SysFreeMem
 0001:00000260       System.SysFreeString
 0001:000008D0       System.SysGetMem
 0001:00000E4C       System.SysReallocMem
 0001:00000258       System.SysReAllocStringLen
 0001:00001500       System.SysRegisterExpectedMemoryLeak
 0002:00000000       System.System
 0001:00001540       System.SysUnregisterExpectedMemoryLeak
 0004:00000046       System.Test8086
 0001:00005060       System.TInterfacedObject.AfterConstruction
 0001:0000506C       System.TInterfacedObject.BeforeDestruction
 0001:0000507C       System.TInterfacedObject.NewInstance
 0001:0000508C       System.TInterfacedObject.QueryInterface
 0001:000050B4       System.TInterfacedObject._AddRef
 0001:000050C8       System.TInterfacedObject._Release
 0001:00002A6C       System.TObject.AfterConstruction
 0001:00002A70       System.TObject.BeforeDestruction
 0001:000027B0       System.TObject.ClassName
 0001:000027C4       System.TObject.ClassParent
 0001:000027A8       System.TObject.ClassType
 0001:0000289C       System.TObject.CleanupInstance
 0001:00002808       System.TObject.Create
 0001:00002A68       System.TObject.DefaultHandler
 0001:00002828       System.TObject.Destroy
 0001:00002A74       System.TObject.Dispatch
 0001:00002838       System.TObject.Free
 0001:000027EC       System.TObject.FreeInstance
 0001:000028EC       System.TObject.GetInterface
 0001:00002980       System.TObject.GetInterfaceEntry
 0001:00002A4C       System.TObject.InheritsFrom
 0001:00002844       System.TObject.InitInstance
 0001:00002800       System.TObject.InstanceSize
 0001:000027D0       System.TObject.NewInstance
 0001:00002A60       System.TObject.SafeCallException
 0001:00004A3C       System.ToLongPath
 0001:00000188       System.UnhandledExceptionFilter
 0001:00005118       System.UnicodeToUtf8
 0001:00003B50       System.UniqueString
 0001:00004F70       System.UnregisterModule
 0001:00003210       System.UnsetExceptionHandler
 0001:000053E0       System.UTF8Decode
 0001:00005324       System.UTF8Encode
 0001:000051F4       System.Utf8ToUnicode
 0003:00000010       System.VarAddRefProc
 0003:0000000C       System.VarClearProc
 0003:00000014       System.VarCopyProc
 0003:00000018       System.VarToLStrProc
 0003:0000001C       System.VarToWStrProc
 0001:000002A4       System.VirtualAlloc
 0001:000002AC       System.VirtualFree
 0001:00000248       System.VirtualQuery
 0001:000037A8       System.WCharFromChar
 0001:00000240       System.WideCharToMultiByte
 0001:000034C8       System.WriteErrorMessage
 0001:00000190       System.WriteFile
 0001:00003DEC       System.WStrError
 0001:00003E0C       System.WStrSet
 0004:00002914       SysUtils..35
 0001:00005D38       SysUtils..EAbort
 0001:000065AC       SysUtils..EAbstractError
 0001:00006384       SysUtils..EAccessViolation
 0001:0000654C       SysUtils..EAssertionFailed
 0001:00006498       SysUtils..EControlC
 0001:00006328       SysUtils..EConvertError
 0001:00005FAC       SysUtils..EDivByZero
 0001:00005E9C       SysUtils..EExternal
 0001:00005EF4       SysUtils..EExternalException
 0001:00005D8C       SysUtils..EHeapException
 0001:00005E44       SysUtils..EInOutError
 0001:00005F54       SysUtils..EIntError
 0001:00006608       SysUtils..EIntfCastError
 0001:0000605C       SysUtils..EIntOverflow
 0001:000062CC       SysUtils..EInvalidCast
 0001:00006110       SysUtils..EInvalidOp
 0001:00006270       SysUtils..EInvalidPointer
 0001:000060B8       SysUtils..EMathError
 0001:00006664       SysUtils..EOSError
 0001:00005DE8       SysUtils..EOutOfMemory
 0001:000061C0       SysUtils..EOverflow
 0001:000063E4       SysUtils..EPrivilege
 0001:00006004       SysUtils..ERangeError
 0001:000066BC       SysUtils..ESafecallException
 0001:0000643C       SysUtils..EStackOverflow
 0001:00006218       SysUtils..EUnderflow
 0001:000064F0       SysUtils..EVariantError
 0001:00005CD0       SysUtils..Exception
 0001:00006168       SysUtils..EZeroDivide
 0001:0000695C       SysUtils..TMultiReadExclusiveWriteSynchronizer
 0001:00006880       SysUtils..TThreadLocalCounter
 0001:0000B778       SysUtils.Abort
 0001:0000BAF8       SysUtils.AbstractErrorHandler
 0003:00000838       SysUtils.AccessMode
 0001:00006C98       SysUtils.AnsiCompareText
 0001:00006DD4       SysUtils.AnsiExtractQuotedStr
 0001:0000C428       SysUtils.AnsiPos
 0001:0000C460       SysUtils.AnsiStrPos
 0001:0000C500       SysUtils.AnsiStrRScan
 0001:0000C534       SysUtils.AnsiStrScan
 0001:00006C60       SysUtils.AnsiUpperCase
 0001:00009780       SysUtils.AppendChars
 0001:00008B88       SysUtils.AppendChars
 0001:00008F6C       SysUtils.AppendFormat
 0001:00009B64       SysUtils.AppendFormat
 0001:000097E0       SysUtils.AppendNumber
 0001:00008BE8       SysUtils.AppendNumber
 0001:00008BCC       SysUtils.AppendString
 0001:000097C4       SysUtils.AppendString
 0001:0000BADC       SysUtils.AssertErrorHandler
 0001:0000781C       SysUtils.BackfillGetDiskFreeSpaceEx
 0001:00007288       SysUtils.BoolToStr
 0001:0000C0C0       SysUtils.ByteToCharIndex
 0001:0000C09C       SysUtils.ByteToCharLen
 0001:0000C060       SysUtils.ByteType
 0001:0000BFEC       SysUtils.ByteTypeTest
 0001:000076E0       SysUtils.ChangeFileExt
 0001:0000C2D4       SysUtils.CharLength
 0001:0000C1B8       SysUtils.CharToByteIndex
 0001:0000C23C       SysUtils.CharToByteLen
 0001:0000D618       SysUtils.ClearHashTables
 0001:00006B38       SysUtils.CompareStr
 0001:00006BA0       SysUtils.CompareText
 0001:00007168       SysUtils.CompareWith
 0001:0000B518       SysUtils.ConvertAddr
 0001:00008CD8       SysUtils.ConvertEraString
 0001:000098D0       SysUtils.ConvertEraString
 0001:000069EC       SysUtils.ConvertError
 0001:00006A04       SysUtils.ConvertErrorFmt
 0001:00009A4C       SysUtils.ConvertYearString
 0001:00008E54       SysUtils.ConvertYearString
 0001:0000C128       SysUtils.CountChars
 0001:0000BA20       SysUtils.CreateAssertException
 0001:0000BBA8       SysUtils.CreateAVObject
 0001:00007890       SysUtils.CreateDir
 0001:0000B950       SysUtils.CreateInOutError
 0003:00000830       SysUtils.cSimpleBoolStrs
 0004:0000280C       SysUtils.CurrencyDecimals
 0004:00002808       SysUtils.CurrencyFormat
 0004:00002804       SysUtils.CurrencyString
 0001:00008B74       SysUtils.CurrentYear
 0001:000085EC       SysUtils.CurrToStr
 0001:00006EDC       SysUtils.CvtInt
 0001:00006F48       SysUtils.CvtInt64
 0003:00000870       SysUtils.CWNear
 0004:0000280D       SysUtils.DateSeparator
 0001:0000A39C       SysUtils.DateTimeToString
 0001:00009724       SysUtils.DateTimeToString
 0001:000086E8       SysUtils.DateTimeToTimeStamp
 0001:00008B4C       SysUtils.DayOfWeek
 0003:0000086C       SysUtils.DCon10
 0004:0000280B       SysUtils.DecimalSeparator
 0001:00008ABC       SysUtils.DecodeDate
 0001:00008970       SysUtils.DecodeDateFully
 0001:000087DC       SysUtils.DecodeTime
 0003:00000900       SysUtils.DefLongDayNames
 0003:000008B4       SysUtils.DefLongMonthNames
 0003:000008E4       SysUtils.DefShortDayNames
 0003:00000884       SysUtils.DefShortMonthNames
 0001:0000745C       SysUtils.DirectoryExists
 0001:000069D0       SysUtils.DivMod
 0001:0000BED0       SysUtils.DoneExceptions
 0001:0000B924       SysUtils.EHeapException.FreeInstance
 0003:000007B8       SysUtils.EmptyStr
 0003:000007BC       SysUtils.EmptyWideStr
 0001:00008940       SysUtils.EncodeDate
 0001:0000879C       SysUtils.EncodeTime
 0001:0000B184       SysUtils.EnumEraNames
 0001:0000B1C0       SysUtils.EnumEraYearOffsets
 0004:000028D4       SysUtils.EraNames
 0001:0000A6CC       SysUtils.EraToYear
 0004:000028F0       SysUtils.EraYearOffsets
 0001:0000B9D0       SysUtils.ErrorHandler
 0003:0000091C       SysUtils.ErrorMap
 0001:0000BE3C       SysUtils.ExceptHandler
 0001:0000B798       SysUtils.Exception.Create
 0001:0000B7D4       SysUtils.Exception.CreateFmt
 0001:0000B854       SysUtils.Exception.CreateRes
 0001:0000B890       SysUtils.Exception.CreateResFmt
 0001:0000B524       SysUtils.ExceptionErrorMessage
 0003:00000954       SysUtils.ExceptMap
 0001:0000C3D8       SysUtils.ExcludeTrailingPathDelimiter
 0001:000073D4       SysUtils.ExistsLockedOrShared
 0001:000077E0       SysUtils.ExpandFileName
 0001:000077A8       SysUtils.ExtractFileName
 0001:00007774       SysUtils.ExtractFilePath
 0004:00002910       SysUtils.FalseBoolStrs
 0003:00000860       SysUtils.FCon1E18
 0001:00007414       SysUtils.FileExists
 0001:000072D4       SysUtils.FileOpen
 0001:0000732C       SysUtils.FileRead
 0001:00007384       SysUtils.FileSeek
 0001:00007358       SysUtils.FileWrite
 0001:0000D918       SysUtils.Finalization
 0001:00007670       SysUtils.FindClose
 0001:000075FC       SysUtils.FindFirst
 0001:00007578       SysUtils.FindMatchingFile
 0001:0000764C       SysUtils.FindNext
 0004:00004908       SysUtils.FLanguages
 0001:0000827C       SysUtils.FloatToDecimal
 0001:000085BC       SysUtils.FloatToStr
 0001:00007FA8       SysUtils.FloatToText
 0003:00000874       SysUtils.FMSecsPerDay
 0001:00007E88       SysUtils.FmtStr
 0001:00007480       SysUtils.ForceDirectories
 0001:00007E74       SysUtils.Format
 0003:0000087C       SysUtils.Format
 0003:00000880       SysUtils.Format
 0001:00007ABC       SysUtils.FormatBuf
 0001:00007AB0       SysUtils.FormatClearStr
 0001:0000A3FC       SysUtils.FormatDateTime
 0001:00007A34       SysUtils.FormatError
 0003:00000858       SysUtils.FormatErrorStrs
 0001:00007A8C       SysUtils.FormatVarToStr
 0001:0000D608       SysUtils.FreeAndNil
 0001:0000D14C       SysUtils.FreeTerminateProcs
 0001:0000982C       SysUtils.GetCount
 0001:00008C34       SysUtils.GetCount
 0001:00009858       SysUtils.GetDate
 0001:00008C60       SysUtils.GetDate
 0001:0000A5E4       SysUtils.GetDateOrder
 0003:0000082C       SysUtils.GetDiskFreeSpaceEx
 0001:0000B238       SysUtils.GetEraNamesAndYearOffsets
 0001:0000A678       SysUtils.GetEraYearOffset
 0001:0000BB90       SysUtils.GetExceptionClass
 0001:0000BD74       SysUtils.GetExceptionObject
 0001:0000C694       SysUtils.GetFormatSettings
 0001:0000AEAC       SysUtils.GetLocaleChar
 0001:0000CA0C       SysUtils.GetLocaleFormatSettings
 0001:0000B074       SysUtils.GetLocaleMonthDayNames
 0001:0000AE60       SysUtils.GetLocaleStr
 0001:0000D060       SysUtils.GetModuleName
 0001:0000AF14       SysUtils.GetMonthDayNames
 0001:00009890       SysUtils.GetTime
 0001:00008C98       SysUtils.GetTime
 0001:0000CF20       SysUtils.HashName
 0003:00000828       SysUtils.HexDisplayPrefix
 0003:00000878       SysUtils.IMSecsPerDay
 0001:0000C38C       SysUtils.IncludeTrailingPathDelimiter
 0001:0000D170       SysUtils.InitDriveSpacePtr
 0001:0000BE4C       SysUtils.InitExceptions
 0001:0000C574       SysUtils.InitLeadBytes
 0001:0000BF7C       SysUtils.InitPlatformId
 0001:0000C5D0       SysUtils.InitSysLocale
 0001:0000D1D8       SysUtils.InterlockedDecrement
 0001:0000D1E4       SysUtils.InterlockedExchange
 0001:0000D1EC       SysUtils.InterlockedExchangeAdd
 0001:0000D1CC       SysUtils.InterlockedIncrement
 0001:0000703C       SysUtils.IntToHex
 0001:00006F28       SysUtils.IntToStr
 0001:00007014       SysUtils.IntToStr
 0004:0000291C       SysUtils.InvalidPointer
 0001:00008838       SysUtils.IsLeapYear
 0001:0000C344       SysUtils.IsPathDelimiter
 0001:0000768C       SysUtils.LastDelimiter
 0003:00000808       SysUtils.LeadBytes
 0004:000028D2       SysUtils.ListSeparator
 0001:0000AED8       SysUtils.LocalGetLocaleStr
 0001:0000B038       SysUtils.LocalGetLocaleStr
 0004:00002814       SysUtils.LongDateFormat
 0004:000028A8       SysUtils.LongDayNames
 0004:0000285C       SysUtils.LongMonthNames
 0004:00002828       SysUtils.LongTimeFormat
 0001:00006AB0       SysUtils.LowerCase
 0001:0000BB10       SysUtils.MapException
 0001:0000CF48       SysUtils.ModuleUnloaded
 0003:000007D8       SysUtils.MonthDays
 0004:00002809       SysUtils.NegCurrFormat
 0001:0000C30C       SysUtils.NextCharIndex
 0004:00002918       SysUtils.OutOfMemory
 0001:00007F64       SysUtils.PutExponent
 0001:00006D68       SysUtils.QuotedStr
 0001:0000BACC       SysUtils.RaiseAssertException
 0001:0000D0A4       SysUtils.RaiseLastOSError
 0001:0000D098       SysUtils.RaiseLastOSError
 0001:0000B774       SysUtils.ReturnAddr
 0001:00006C3C       SysUtils.SameText
 0001:0000A418       SysUtils.ScanBlanks
 0001:0000A5A8       SysUtils.ScanChar
 0001:0000A728       SysUtils.ScanDate
 0001:0000A43C       SysUtils.ScanNumber
 0001:0000A4D0       SysUtils.ScanString
 0001:0000AA74       SysUtils.ScanTime
 0001:0000A630       SysUtils.ScanToNumber
 0003:00000844       SysUtils.ShareMode
 0004:00002810       SysUtils.ShortDateFormat
 0004:0000288C       SysUtils.ShortDayNames
 0004:0000282C       SysUtils.ShortMonthNames
 0004:00002824       SysUtils.ShortTimeFormat
 0001:0000B6AC       SysUtils.ShowException
 0001:0000D090       SysUtils.Sleep
 0001:000079F4       SysUtils.StrAlloc
 0001:0000C084       SysUtils.StrByteType
 0001:0000C2AC       SysUtils.StrCharLength
 0001:000078DC       SysUtils.StrEnd
 0001:0000CD70       SysUtils.StringReplace
 0001:00007900       SysUtils.StrLCopy
 0001:000078AC       SysUtils.StrLen
 0001:00007E34       SysUtils.StrLFmt
 0001:00007934       SysUtils.StrLIComp
 0001:000078F0       SysUtils.StrMove
 0001:00007A08       SysUtils.StrNew
 0001:0000C2CC       SysUtils.StrNextChar
 0001:000079E0       SysUtils.StrPas
 0001:0000798C       SysUtils.StrPos
 0001:00007978       SysUtils.StrScan
 0001:0000AC6C       SysUtils.StrToDate
 0001:0000AD44       SysUtils.StrToDateTime
 0001:0000861C       SysUtils.StrToFloat
 0001:00007064       SysUtils.StrToInt
 0001:000070A0       SysUtils.StrToIntDef
 0001:0000ACD8       SysUtils.StrToTime
 0001:0000AE14       SysUtils.SysErrorMessage
 0004:000028C4       SysUtils.SysLocale
 0001:00008ADC       SysUtils.SystemTimeToDateTime
 0002:000000AC       SysUtils.SysUtils
 0003:00000A04       SysUtils.TerminateProcList
 0001:000084A8       SysUtils.TextToFloat
 0004:0000280A       SysUtils.ThousandSeparator
 0004:0000281C       SysUtils.TimeAMString
 0004:00002820       SysUtils.TimePMString
 0004:00002818       SysUtils.TimeSeparator
 0001:0000D530       SysUtils.TMultiReadExclusiveWriteSynchronizer.BeginRead
 0001:0000D434       SysUtils.TMultiReadExclusiveWriteSynchronizer.BeginWrite
 0001:0000D3F0       SysUtils.TMultiReadExclusiveWriteSynchronizer.BlockReaders
 0001:0000D334       SysUtils.TMultiReadExclusiveWriteSynchronizer.Create
 0001:0000D3A8       SysUtils.TMultiReadExclusiveWriteSynchronizer.Destroy
 0001:0000D5A0       SysUtils.TMultiReadExclusiveWriteSynchronizer.EndRead
 0001:0000D4E0       SysUtils.TMultiReadExclusiveWriteSynchronizer.EndWrite
 0001:0000D408       SysUtils.TMultiReadExclusiveWriteSynchronizer.UnblockOneWriter
 0001:0000D3FC       SysUtils.TMultiReadExclusiveWriteSynchronizer.UnblockReaders
 0001:0000D414       SysUtils.TMultiReadExclusiveWriteSynchronizer.WaitForReadSignal
 0001:0000D424       SysUtils.TMultiReadExclusiveWriteSynchronizer.WaitForWriteSignal
 0001:0000B2E8       SysUtils.TranslateDateFormat
 0001:00006CDC       SysUtils.Trim
 0001:00006D30       SysUtils.TrimRight
 0004:0000290C       SysUtils.TrueBoolStrs
 0001:00008874       SysUtils.TryEncodeDate
 0001:0000872C       SysUtils.TryEncodeTime
 0001:000071EC       SysUtils.TryStrToBool
 0001:000086CC       SysUtils.TryStrToCurr
 0001:0000ACA0       SysUtils.TryStrToDate
 0001:0000AD78       SysUtils.TryStrToDateTime
 0001:00008658       SysUtils.TryStrToFloat
 0001:00008674       SysUtils.TryStrToFloat
 0001:000086A0       SysUtils.TryStrToFloat
 0001:000070B8       SysUtils.TryStrToInt
 0001:0000AD0C       SysUtils.TryStrToTime
 0001:0000D2E0       SysUtils.TThreadLocalCounter.Delete
 0001:0000D1F4       SysUtils.TThreadLocalCounter.Destroy
 0001:0000D24C       SysUtils.TThreadLocalCounter.HashIndex
 0001:0000D268       SysUtils.TThreadLocalCounter.Open
 0001:0000D2F0       SysUtils.TThreadLocalCounter.Recycle
 0003:000007D4       SysUtils.TwoDigitYearCenturyWindow
 0004:00003914       SysUtils.UnitHashBuckets
 0001:00006A28       SysUtils.UpperCase
 0004:00002920       SysUtils.ValidatedUnitHashBuckets
 0001:000070D8       SysUtils.VerifyBoolStrArray
 0003:000007CC       SysUtils.Win32BuildNumber
 0001:0000D13C       SysUtils.Win32Check
 0003:000007D0       SysUtils.Win32CSDVersion
 0003:000007C4       SysUtils.Win32MajorVersion
 0003:000007C8       SysUtils.Win32MinorVersion
 0003:000007C0       SysUtils.Win32Platform
 0001:00045B6C       TileStorage_DBMS.Finalization
 0002:000003C8       TileStorage_DBMS.TileStorage_DBMS
 0004:000049A8       TypInfo..6
 0003:00000A98       TypInfo.BooleanIdents
 0003:00000AA0       TypInfo.DotSep
 0001:00011678       TypInfo.Finalization
 0002:000001F0       TypInfo.TypInfo
 0001:00017350       t_DBMS_contenttype..TContentTypeList
 0001:000173C0       t_DBMS_contenttype.TContentTypeList.AddItem
 0001:00017434       t_DBMS_contenttype.TContentTypeList.Clear
 0001:00017470       t_DBMS_contenttype.TContentTypeList.Create
 0001:000174B0       t_DBMS_contenttype.TContentTypeList.Destroy
 0001:000174E0       t_DBMS_contenttype.TContentTypeList.FindItemByAnsiContentTypeText
 0001:00017554       t_DBMS_contenttype.TContentTypeList.FindItemByAnsiValueInternal
 0001:000175B4       t_DBMS_contenttype.TContentTypeList.FindItemByIdContentType
 0001:0001766C       t_DBMS_contenttype.TContentTypeList.FindItemByWideContentTypeText
 0001:000176F8       t_DBMS_contenttype.TContentTypeList.SetCapacity
 0001:00017728       t_DBMS_service.TDBMS_Service_Info.CalcBackToTilePos
 0001:00017768       t_DBMS_service.TDBMS_Service_Info.XYMaskWidth
 0001:000177E4       t_DBMS_Template.TSQLTile.HXToTableNameChar
 0001:0001784C       t_DBMS_Template.TSQLTile.HXYToTableNamePos
 0001:00017870       t_DBMS_Template.TSQLTile.HYToTableNameChar
 0001:000178D8       t_DBMS_Template.TSQLTile.ZoomToTableNameChar
 0001:00016D88       t_DBMS_version..TVersionList
 0001:000172D4       t_DBMS_version.TVersionAA.Clear
 0001:00016DF4       t_DBMS_version.TVersionList.AddItem
 0001:00016EE8       t_DBMS_version.TVersionList.Clear
 0001:00016F24       t_DBMS_version.TVersionList.Create
 0001:00016F64       t_DBMS_version.TVersionList.Destroy
 0001:00016F94       t_DBMS_version.TVersionList.FindItemByAnsiValue
 0001:00017010       t_DBMS_version.TVersionList.FindItemByAnsiValueInternal
 0001:00017084       t_DBMS_version.TVersionList.FindItemByIdVer
 0001:00017144       t_DBMS_version.TVersionList.FindItemByIdVerInternal
 0001:000171AC       t_DBMS_version.TVersionList.FindItemByVersion
 0001:00017220       t_DBMS_version.TVersionList.FindItemByWideValue
 0001:000172B0       t_DBMS_version.TVersionList.GetItemByIndex
 0001:00016CC8       t_ETS_Path.TETS_Path_DelimPos.Get3Parts
 0001:00016AA4       t_ETS_Path.TETS_Path_Divided_W.ApplyFrom
 0001:00016C2C       t_ETS_Path.TETS_Path_Divided_W.AsEndpoint
 0001:00016C6C       t_ETS_Path.TETS_Path_Divided_W.Clear
 0001:00016C8C       t_ETS_Path.TETS_Path_Divided_W.CopyFrom
 0001:00018804       t_ODBC_Buffer.OdbcAlloc
 0001:000188A0       t_ODBC_Buffer.OdbcFetchStmt
 0001:00018848       t_ODBC_Buffer.OdbcFreeBuffer
 0001:0001886C       t_ODBC_Buffer.OdbcFreeColBuffer
 0001:000188F8       t_ODBC_Buffer.OdbcNumericToInt
 0001:0001881C       t_ODBC_Buffer.OdbcRealloc
 0001:00018950       t_ODBC_Buffer.OdbcTryEncodeTimeStamp
 0001:00019EA8       t_ODBC_Buffer.TDescribeColData.IsLOB
 0001:00019F04       t_ODBC_Buffer.TDescribeColData.LOBDataType
 0001:000189C8       t_ODBC_Buffer.TOdbcFetchCols.Close
 0001:00018B48       t_ODBC_Buffer.TOdbcFetchCols.ColIndex
 0001:00018BCC       t_ODBC_Buffer.TOdbcFetchCols.ColToAnsiCharDef
 0001:00018C98       t_ODBC_Buffer.TOdbcFetchCols.ColToAnsiString
 0001:00018DC8       t_ODBC_Buffer.TOdbcFetchCols.ColToDateTime
 0001:00019154       t_ODBC_Buffer.TOdbcFetchCols.ColToLongInt
 0001:00019370       t_ODBC_Buffer.TOdbcFetchCols.ColToSmallInt
 0001:0001959C       t_ODBC_Buffer.TOdbcFetchCols.DescribeAndBind
 0001:00019A6C       t_ODBC_Buffer.TOdbcFetchCols.FetchLOBs
 0001:00019C20       t_ODBC_Buffer.TOdbcFetchCols.FetchRecord
 0001:00019C50       t_ODBC_Buffer.TOdbcFetchCols.GetLOBBuffer
 0001:00019D58       t_ODBC_Buffer.TOdbcFetchCols.GetOptionalAnsiChar
 0001:00019D8C       t_ODBC_Buffer.TOdbcFetchCols.GetOptionalLongInt
 0001:00019DBC       t_ODBC_Buffer.TOdbcFetchCols.GetOptionalSmallInt
 0001:00018A80       t_ODBC_Buffer.TOdbcFetchCols.Init
 0001:00018A9C       t_ODBC_Buffer.TOdbcFetchCols.InternalColData
 0001:00018AC4       t_ODBC_Buffer.TOdbcFetchCols.InternalFreeColNames
 0001:00018AF4       t_ODBC_Buffer.TOdbcFetchCols.InternalFreeLOBs
 0001:00019DEC       t_ODBC_Buffer.TOdbcFetchCols.IsNull
 0001:00019E98       t_ODBC_Buffer.TOdbcFetchCols.WithColNames
 0001:00019EA0       t_ODBC_Buffer.TOdbcFetchCols.WithLOBs
 0001:00019F24       t_ODBC_Buffer.TOdbcFetchCols10.Init
 0001:00019F44       t_ODBC_Buffer.TOdbcFetchCols12.Init
 0001:00019F9C       t_ODBC_Buffer.TOdbcFetchCols2.Init
 0001:00019F80       t_ODBC_Buffer.TOdbcFetchCols3.Init
 0001:00019F64       t_ODBC_Buffer.TOdbcFetchCols5.Init
 0001:00019FB8       t_ODBC_Buffer.TOdbcFetchCols7.Init
 0004:000049EC       t_ODBC_Connection..1
 0001:0001C414       t_ODBC_Connection.Finalization
 0004:000049F0       t_ODBC_Connection.gEnv
 0001:0001B64C       t_ODBC_Connection.Load_DSN_Params_from_ODBC
 0001:0001B678       t_ODBC_Connection.TODBCConnection.CheckByteaAsLoOff
 0001:0001B7E0       t_ODBC_Connection.TODBCConnection.CheckDirectSQLSingleNotNull
 0001:0001B89C       t_ODBC_Connection.TODBCConnection.CheckSQLResult
 0001:0001B8D0       t_ODBC_Connection.TODBCConnection.Connect
 0001:0001BBD0       t_ODBC_Connection.TODBCConnection.Connected
 0001:0001BBD8       t_ODBC_Connection.TODBCConnection.DisConnect
 0001:0001BC08       t_ODBC_Connection.TODBCConnection.ExecuteDirectSQL
 0001:0001BCB0       t_ODBC_Connection.TODBCConnection.ExecuteDirectWithBlob
 0001:0001BDB4       t_ODBC_Connection.TODBCConnection.GetDSN
 0001:0001BDDC       t_ODBC_Connection.TODBCConnection.GetHENV
 0001:0001BDE4       t_ODBC_Connection.TODBCConnection.GetPWD
 0001:0001BE0C       t_ODBC_Connection.TODBCConnection.GetUID
 0001:0001BE34       t_ODBC_Connection.TODBCConnection.Init
 0001:0001BE88       t_ODBC_Connection.TODBCConnection.ODBCDriverInfoA
 0001:0001BFF4       t_ODBC_Connection.TODBCConnection.OpenDirectSQLFetchCols
 0001:0001C0E0       t_ODBC_Connection.TODBCConnection.SetDSN
 0001:0001C100       t_ODBC_Connection.TODBCConnection.SetPWD
 0001:0001C120       t_ODBC_Connection.TODBCConnection.SetUID
 0001:0001C140       t_ODBC_Connection.TODBCConnection.TableExistsDirect
 0001:0001C1D4       t_ODBC_Connection.TODBCConnection.Uninit
 0001:0001C1EC       t_ODBC_Connection.TOdbcEnvironment.Close
 0001:0001C208       t_ODBC_Connection.TOdbcEnvironment.FindDSN
 0001:0001C308       t_ODBC_Connection.TOdbcEnvironment.Init
 0001:0001C31C       t_ODBC_Connection.TOdbcEnvironment.Load
 0002:000002E4       t_ODBC_Connection.t_ODBC_Connection
 0001:00018284       t_ODBC_Exception..EODBCAllocateEnvironment
 0001:00017DC0       t_ODBC_Exception..EODBCBindColError
 0001:00017A44       t_ODBC_Exception..EODBCConnectionError
 0001:00018080       t_ODBC_Exception..EODBCConvertDateTimeError
 0001:00017EE4       t_ODBC_Exception..EODBCConvertError
 0001:00017F44       t_ODBC_Exception..EODBCConvertFromDateError
 0001:00017FAC       t_ODBC_Exception..EODBCConvertFromTimeError
 0001:00018014       t_ODBC_Exception..EODBCConvertFromTimeStampError
 0001:000181B8       t_ODBC_Exception..EODBCConvertLOBError
 0001:000180E8       t_ODBC_Exception..EODBCConvertLongintError
 0001:00018150       t_ODBC_Exception..EODBCConvertSmallintError
 0001:00017D5C       t_ODBC_Exception..EODBCDescribeColError
 0001:00017C90       t_ODBC_Exception..EODBCDirectExecBlobError
 0001:00017C2C       t_ODBC_Exception..EODBCDirectExecError
 0001:00017AA8       t_ODBC_Exception..EODBCEnvironmentError
 0001:000179E8       t_ODBC_Exception..EODBCException
 0001:00017BCC       t_ODBC_Exception..EODBCFetchStmtError
 0001:00017E20       t_ODBC_Exception..EODBCGetDataLOBError
 0001:00017CF8       t_ODBC_Exception..EODBCNumResultColsError
 0001:00017B6C       t_ODBC_Exception..EODBCOpenFetchError
 0001:00017E84       t_ODBC_Exception..EODBCSimpleError
 0001:00017B0C       t_ODBC_Exception..EODBCStatementError
 0001:0001821C       t_ODBC_Exception..EODBCUnknownDataTypeError
 0001:000182EC       t_ODBC_Exception.CheckStatementResult
 0001:0001866C       t_ODBC_Exception.EODBCException.CreateWithDiag
 0001:000184C0       t_ODBC_Exception.MakeODBCInfoMessage
 0001:0001831C       t_ODBC_Exception.tError
 0004:000049E0       t_SQL_types..32
 0003:00000ECC       t_SQL_types.c_ODBC_SQLSTATE_ConnectionIsDead_1
 0003:00000EF8       t_SQL_types.c_ODBC_SQLSTATE_ConnectionIsDead_2
 0003:00000F24       t_SQL_types.c_ODBC_SQLSTATE_DataTruncation
 0003:00000E74       t_SQL_types.c_ODBC_SQLSTATE_NoSpaceAvailable_1
 0003:00000EA0       t_SQL_types.c_ODBC_SQLSTATE_NoSpaceAvailable_2
 0003:00000E48       t_SQL_types.c_ODBC_SQLSTATE_PrimaryKeyViolation
 0003:00000F7C       t_SQL_types.c_ODBC_SQLSTATE_ReadOnlyConnection
 0003:00000DF0       t_SQL_types.c_ODBC_SQLSTATE_TableNotEists_1
 0003:00000E1C       t_SQL_types.c_ODBC_SQLSTATE_TableNotEists_2
 0003:00000F50       t_SQL_types.c_ODBC_SQLSTATE_UnsynchronizedStatements
 0003:00000D98       t_SQL_types.c_SQL_DateTimeForEmptyVersion
 0003:00000B80       t_SQL_types.c_SQL_DateTime_FieldName
 0003:00000B54       t_SQL_types.c_SQL_DateTime_FunctionName
 0003:00000BAC       t_SQL_types.c_SQL_DateTime_Literal_Prefix
 0003:00000D1C       t_SQL_types.c_SQL_DUAL_Create
 0003:00000BD8       t_SQL_types.c_SQL_Empty_Version_Denied
 0003:00000B28       t_SQL_types.c_SQL_Engine_Name
 0003:00000D48       t_SQL_types.c_SQL_ENUM_SVC_Tables
 0003:00000CCC       t_SQL_types.c_SQL_FROM
 0003:00000C94       t_SQL_types.c_SQL_INT1_FieldName
 0003:00000C68       t_SQL_types.c_SQL_INT2_FieldName
 0003:00000C3C       t_SQL_types.c_SQL_INT3_FieldName
 0003:00000C10       t_SQL_types.c_SQL_INT4_FieldName
 0003:00000BE4       t_SQL_types.c_SQL_INT8_FieldName
 0003:00000CC0       t_SQL_types.c_SQL_INT_With_Size
 0003:00000D10       t_SQL_types.c_SQL_ProcedureNew_Mode
 0003:00000D74       t_SQL_types.c_SQL_QuotedIdentifierForcedForTiles
 0003:00000D80       t_SQL_types.c_SQL_QuotedIdentifierValue
 0003:00000CF8       t_SQL_types.c_SQL_RowCount1_Mode
 0003:00000D04       t_SQL_types.c_SQL_UpsertMode
 0001:00016860       t_SQL_types.Finalization
 0001:00016468       t_SQL_types.GetEngineTypeByODBCDescription
 0001:000167B8       t_SQL_types.GetEngineTypeUsingSelectFromDualException
 0001:000167B4       t_SQL_types.GetEngineTypeUsingSelectVersionException
 0001:000166D8       t_SQL_types.GetEngineTypeUsingSQL_Version_Upper
 0001:000167BC       t_SQL_types.OdbcEceptionStartsWith
 0001:0001680C       t_SQL_types.StandardExceptionType
 0002:0000028C       t_SQL_types.t_SQL_types
 0001:0001CEEC       t_TSS.TTSS_Info.ApplyDefinition
 0001:0001CFC0       t_TSS.TTSS_Info.Clear
 0001:0001CFDC       t_TSS.TTSS_Info.TileInSection
 0001:0001D044       t_TSS.TTSS_Primary_Params.ApplyAlgorithmValue
 0001:0001D0A0       t_TSS.TTSS_Primary_Params.ApplyLinkValue
 0001:0001D134       t_TSS.TTSS_Primary_Params.UseSingleConn
 0001:00023D24       u_7zHolder..T7zHolder
 0001:00023D8C       u_7zHolder.T7zHolder.CheckIfInitOrFailed
 0001:00023D98       u_7zHolder.T7zHolder.Create
 0001:00023DDC       u_7zHolder.T7zHolder.CreateCompressor
 0001:00023E24       u_7zHolder.T7zHolder.CreateDecompressor
 0001:00023E60       u_7zHolder.T7zHolder.Destroy
 0001:00023E94       u_7zHolder.T7zHolder.InternalLoad7z
 0001:00023F40       u_7zHolder.T7zHolder.InternalUnload7z
 0004:0000638C       u_CompressBinaryData..1
 0001:00034D98       u_CompressBinaryData..TPointerMemoryStream
 0001:00034E78       u_CompressBinaryData.Check7zHeader
 0001:00034E5C       u_CompressBinaryData.CheckGZHeader
 0001:00034E54       u_CompressBinaryData.CheckZLibHeader
 0001:00034E30       u_CompressBinaryData.EnsureMemStream
 0001:00035650       u_CompressBinaryData.Finalization
 0004:00006390       u_CompressBinaryData.G7zHolder
 0001:00034F14       u_CompressBinaryData.GZRawCompress2Stream
 0001:00034F24       u_CompressBinaryData.GZRawDecompress2Stream
 0001:00034E90       u_CompressBinaryData.GZRawInternal
 0001:0003529C       u_CompressBinaryData.RawCompress2BinaryData
 0001:00035444       u_CompressBinaryData.RawDecompress2BinaryData
 0001:00034E18       u_CompressBinaryData.Set7zHolder
 0001:00034F34       u_CompressBinaryData.SevenZipRawCompress2Stream
 0001:000350D0       u_CompressBinaryData.SevenZipRawDecompress2Stream
 0001:0003562C       u_CompressBinaryData.TCompressTileRec.Cleanup
 0001:00035628       u_CompressBinaryData.TPointerMemoryStream.Write
 0002:0000035C       u_CompressBinaryData.u_CompressBinaryData
 0003:00004EA4       u_CompressBinaryData.ZCompressTileRec
 0003:00004EB0       u_CompressBinaryData.ZFileTime
 0001:0001F84C       u_DBMS_Connect.FreeDBMSConnection
 0001:0001F81C       u_DBMS_Connect.GetConnectionByPath
 0001:0001F874       u_DBMS_Connect.TDBMS_Connection.AllowSavePassword
 0001:0001F87C       u_DBMS_Connect.TDBMS_Connection.ApplyConnectionParams
 0001:0001FD98       u_DBMS_Connect.TDBMS_Connection.ApplyCredentialsFormParams
 0001:0001FEA8       u_DBMS_Connect.TDBMS_Connection.ApplyParamsFromINI
 0001:0001FF88       u_DBMS_Connect.TDBMS_Connection.ApplySystemDSNtoConnection
 0001:00020014       u_DBMS_Connect.TDBMS_Connection.calc_exclusive_mode
 0001:0002002C       u_DBMS_Connect.TDBMS_Connection.EnsureConnected
 0001:00020174       u_DBMS_Connect.TDBMS_Connection.ForcedSchemaPrefix
 0001:0002018C       u_DBMS_Connect.TDBMS_Connection.FullSyncronizeSQL
 0001:00020268       u_DBMS_Connect.TDBMS_Connection.GetCheckedEngineType
 0001:00020274       u_DBMS_Connect.TDBMS_Connection.GetConnectionErrorMessage
 0001:0002028C       u_DBMS_Connect.TDBMS_Connection.GetEngineType
 0001:00020460       u_DBMS_Connect.TDBMS_Connection.GetEngineTypeUsingSQL
 0001:000201A0       u_DBMS_Connect.TDBMS_Connection.GetInternalParameter
 0001:00020210       u_DBMS_Connect.TDBMS_Connection.GetSelectRowCount1Mode
 0001:0002023C       u_DBMS_Connect.TDBMS_Connection.GetUpsertMode
 0001:0002097C       u_DBMS_Connect.TDBMS_Connection.Init
 0001:000209D0       u_DBMS_Connect.TDBMS_Connection.IsInternalParameter
 0001:000209EC       u_DBMS_Connect.TDBMS_Connection.IsTSSParameter
 0001:00020A30       u_DBMS_Connect.TDBMS_Connection.KeepAuthenticationInfo
 0001:00020A34       u_DBMS_Connect.TDBMS_Connection.NeedReconnect
 0001:00020A3C       u_DBMS_Connect.TDBMS_Connection.OpenDirectSQLFetchCols
 0001:00020A48       u_DBMS_Connect.TDBMS_Connection.PasswordStorage_ApplyStored
 0001:00020AB4       u_DBMS_Connect.TDBMS_Connection.PasswordStorage_ReadParams
 0001:00020C70       u_DBMS_Connect.TDBMS_Connection.PasswordStorage_SaveParams
 0001:00020DD4       u_DBMS_Connect.TDBMS_Connection.ProcessTSSParameter
 0001:0002125C       u_DBMS_Connect.TDBMS_Connection.ResetConnectionError
 0001:0001F9DC       u_DBMS_Connect.TDBMS_Connection.SaveInternalParameter
 0001:0001FC70       u_DBMS_Connect.TDBMS_Connection.Uninit
 0001:00020354       u_DBMS_Connect._CheckSqlFromClause
 0004:00006398       u_DBMS_Provider..2
 0001:000388C8       u_DBMS_Provider..TDBMS_Provider
 0003:00004F3C       u_DBMS_Provider.c_DualMerge_Ins
 0003:00004F30       u_DBMS_Provider.c_DualMerge_Sel
 0003:00004F54       u_DBMS_Provider.c_DualMerge_Upd
 0003:00004F48       u_DBMS_Provider.c_DualMerge_Val
 0003:00004F0C       u_DBMS_Provider.c_InsertOnDupUpdate_Ins
 0003:00004F18       u_DBMS_Provider.c_InsertOnDupUpdate_Sel
 0003:00004F24       u_DBMS_Provider.c_InsertOnDupUpdate_Upd
 0003:00004F90       u_DBMS_Provider.c_Insert_Ins
 0003:00004F9C       u_DBMS_Provider.c_Insert_Val
 0003:00004F6C       u_DBMS_Provider.c_Merge_Ins
 0003:00004F60       u_DBMS_Provider.c_Merge_Sel
 0003:00004F84       u_DBMS_Provider.c_Merge_Upd
 0003:00004F78       u_DBMS_Provider.c_Merge_Val
 0003:00004FA8       u_DBMS_Provider.c_Update_Upd
 0001:00045324       u_DBMS_Provider.Finalization
 0001:00038B18       u_DBMS_Provider.TDBMS_Provider.AddVersionOrderBy
 0001:00038D3C       u_DBMS_Provider.TDBMS_Provider.AutoCreateServiceRecord
 0001:00038E10       u_DBMS_Provider.TDBMS_Provider.AutoCreateServiceVersion
 0001:0003908C       u_DBMS_Provider.TDBMS_Provider.CheckSecondaryConnections
 0001:000390C4       u_DBMS_Provider.TDBMS_Provider.CheckTileInCommonTiles
 0001:000390D4       u_DBMS_Provider.TDBMS_Provider.ChooseConnection
 0001:00039148       u_DBMS_Provider.TDBMS_Provider.ClearUnknownExceptions
 0001:000391A0       u_DBMS_Provider.TDBMS_Provider.Create
 0001:000392F0       u_DBMS_Provider.TDBMS_Provider.CreateAllBaseTablesFromScript
 0001:000393B8       u_DBMS_Provider.TDBMS_Provider.CreateTableByTemplate
 0001:00039DF4       u_DBMS_Provider.TDBMS_Provider.DBMS_Complete
 0001:00039E14       u_DBMS_Provider.TDBMS_Provider.DBMS_DeleteTile
 0001:00039F88       u_DBMS_Provider.TDBMS_Provider.DBMS_EnumTileVersions
 0001:0003C300       u_DBMS_Provider.TDBMS_Provider.DBMS_ExecOption
 0001:0003DC18       u_DBMS_Provider.TDBMS_Provider.DBMS_GetTileRectInfo
 0001:0003DFEC       u_DBMS_Provider.TDBMS_Provider.DBMS_InsertTile
 0001:0003E414       u_DBMS_Provider.TDBMS_Provider.DBMS_MakeTileEnum
 0001:0003E528       u_DBMS_Provider.TDBMS_Provider.DBMS_SelectTile
 0001:0003EB84       u_DBMS_Provider.TDBMS_Provider.DBMS_SetInformation
 0001:0003ECA8       u_DBMS_Provider.TDBMS_Provider.DBMS_SetTileVersion
 0001:0003EEDC       u_DBMS_Provider.TDBMS_Provider.Destroy
 0001:0003EFE4       u_DBMS_Provider.TDBMS_Provider.DoBeginWork
 0001:0003F030       u_DBMS_Provider.TDBMS_Provider.DoEndWork
 0001:0003F04C       u_DBMS_Provider.TDBMS_Provider.DoOnDeadConnection
 0001:0003F070       u_DBMS_Provider.TDBMS_Provider.DoResetConnectionError
 0001:0003F0A0       u_DBMS_Provider.TDBMS_Provider.FillTableNamesForTiles
 0001:0003F234       u_DBMS_Provider.TDBMS_Provider.GetContentTypeAnsiPointer
 0001:0003F310       u_DBMS_Provider.TDBMS_Provider.GetContentTypeWideString
 0001:0003F3F0       u_DBMS_Provider.TDBMS_Provider.GetGuidesConnection
 0001:0003F3F4       u_DBMS_Provider.TDBMS_Provider.GetMaxNextVersionInts
 0001:0003F618       u_DBMS_Provider.TDBMS_Provider.GetNewIdService
 0001:0003F754       u_DBMS_Provider.TDBMS_Provider.GetSQLIntName_Div
 0001:0003FABC       u_DBMS_Provider.TDBMS_Provider.GetSQL_AddIntWhereClause
 0001:0003FC44       u_DBMS_Provider.TDBMS_Provider.GetSQL_CheckPrevVersion
 0001:00040110       u_DBMS_Provider.TDBMS_Provider.GetSQL_DeleteTile
 0001:000402E4       u_DBMS_Provider.TDBMS_Provider.GetSQL_EnumTileVersions
 0001:00040488       u_DBMS_Provider.TDBMS_Provider.GetSQL_GetTileRectInfo
 0001:00040730       u_DBMS_Provider.TDBMS_Provider.GetSQL_InsertIntoService
 0001:00040B74       u_DBMS_Provider.TDBMS_Provider.GetSQL_InsertUpdateTile
 0001:00041918       u_DBMS_Provider.TDBMS_Provider.GetSQL_SelectTile
 0001:000419F8       u_DBMS_Provider.TDBMS_Provider.GetSQL_SelectTilesInternal
 0001:00042090       u_DBMS_Provider.TDBMS_Provider.GetSQL_SetTileVersion
 0001:00043FAC       u_DBMS_Provider.TDBMS_Provider.GetStatementExceptionType
 0001:00044200       u_DBMS_Provider.TDBMS_Provider.GetUndefinedConnection
 0001:00044204       u_DBMS_Provider.TDBMS_Provider.GetUnknownExceptions
 0001:00042370       u_DBMS_Provider.TDBMS_Provider.GetVersionAnsiPointer
 0001:0004244C       u_DBMS_Provider.TDBMS_Provider.GetVersionWideString
 0001:0004252C       u_DBMS_Provider.TDBMS_Provider.GuidesBeginWork
 0001:00042548       u_DBMS_Provider.TDBMS_Provider.GuidesEndWork
 0001:00042564       u_DBMS_Provider.TDBMS_Provider.HasUnknownExceptions
 0001:000425D8       u_DBMS_Provider.TDBMS_Provider.InternalCalcSQLTile
 0001:00042648       u_DBMS_Provider.TDBMS_Provider.InternalDivideXY
 0001:000426A4       u_DBMS_Provider.TDBMS_Provider.InternalGetContentTypeAnsiValues
 0001:00042708       u_DBMS_Provider.TDBMS_Provider.InternalGetServiceNameByDB
 0001:00042720       u_DBMS_Provider.TDBMS_Provider.InternalGetServiceNameByHost
 0001:00042738       u_DBMS_Provider.TDBMS_Provider.InternalGetVersionAnsiValues
 0001:0004279C       u_DBMS_Provider.TDBMS_Provider.InternalProv_Cleanup
 0001:000427C4       u_DBMS_Provider.TDBMS_Provider.InternalProv_ClearGuides
 0001:000427E0       u_DBMS_Provider.TDBMS_Provider.InternalProv_ClearServiceInfo
 0001:0004282C       u_DBMS_Provider.TDBMS_Provider.InternalProv_Connect
 0001:000429D4       u_DBMS_Provider.TDBMS_Provider.InternalProv_Disconnect
 0001:000429EC       u_DBMS_Provider.TDBMS_Provider.InternalProv_ReadServiceInfo
 0001:0004302C       u_DBMS_Provider.TDBMS_Provider.InternalProv_SetStorageIdentifier
 0001:0004314C       u_DBMS_Provider.TDBMS_Provider.IsUninitialized
 0001:00043154       u_DBMS_Provider.TDBMS_Provider.MakeEmptyVersionInDB
 0001:00043268       u_DBMS_Provider.TDBMS_Provider.MakePtrVersionInDB
 0001:000435A0       u_DBMS_Provider.TDBMS_Provider.MakeVersionByFormParams
 0001:00043A10       u_DBMS_Provider.TDBMS_Provider.ParseMakeVersionSource
 0001:00043D58       u_DBMS_Provider.TDBMS_Provider.ParseVersionSource
 0001:00043F10       u_DBMS_Provider.TDBMS_Provider.ParseVerValueToVerNumber
 0001:00044274       u_DBMS_Provider.TDBMS_Provider.ReadContentTypesFromDB
 0001:000444B0       u_DBMS_Provider.TDBMS_Provider.ReadVersionsFromDB
 0001:00044760       u_DBMS_Provider.TDBMS_Provider.SaveUnknownException
 0001:00044808       u_DBMS_Provider.TDBMS_Provider.SQLDateTimeToDBValue
 0001:00044930       u_DBMS_Provider.TDBMS_Provider.SQLDateTimeToVersionValue
 0001:00044974       u_DBMS_Provider.TDBMS_Provider.SwitchHostToVersion
 0001:000449BC       u_DBMS_Provider.TDBMS_Provider.TryToObtainVerByTile
 0001:00044AD8       u_DBMS_Provider.TDBMS_Provider.Uninitialize
 0001:00044AE0       u_DBMS_Provider.TDBMS_Provider.UpdateServiceVerComp
 0001:00044C84       u_DBMS_Provider.TDBMS_Provider.UpdateTileLoadMode
 0001:00044E78       u_DBMS_Provider.TDBMS_Provider.UpdateTileSaveMode
 0001:0004506C       u_DBMS_Provider.TDBMS_Provider.UpdateVerByTileMode
 0001:00045208       u_DBMS_Provider.TDBMS_Provider.UseSectionByTableXY
 0001:00045214       u_DBMS_Provider.TDBMS_Provider.UseSectionByTileXY
 0001:00045220       u_DBMS_Provider.TDBMS_Provider.VersionExistsInDBWithIdVer
 0002:000003A0       u_DBMS_Provider.u_DBMS_Provider
 0001:0003BDD4       u_DBMS_Provider._AddFormWithPreparedMakeVersion
 0001:0003AFCC       u_DBMS_Provider._AddHtmlLabelCheckbox
 0001:0003AD3C       u_DBMS_Provider._AddListOfVersions
 0001:0003A9C4       u_DBMS_Provider._AddPreamble
 0001:0003A3FC       u_DBMS_Provider._AddReturnFooter
 0001:0003A664       u_DBMS_Provider._AddTable3ColHeader
 0001:0003A5DC       u_DBMS_Provider._AddTileLoadModeLine
 0001:0003A45C       u_DBMS_Provider._AddTileLoadSaveModeLine
 0001:0003A620       u_DBMS_Provider._AddTileSaveModeLine
 0001:0003A7BC       u_DBMS_Provider._AddVerByTileItem
 0001:0003A6D4       u_DBMS_Provider._AddVerCompItem
 0001:00038AB0       u_DBMS_Provider._AddWithFieldValue
 0001:00038970       u_DBMS_Provider._AddWithoutFieldValue
 0001:0003AFA8       u_DBMS_Provider._AllowSavePassword
 0001:00043AB8       u_DBMS_Provider._AllowSaveQualifierValue
 0001:0003B0B8       u_DBMS_Provider._CalcSQLTileFromForm
 0001:00043524       u_DBMS_Provider._DecodedValue
 0001:0003A938       u_DBMS_Provider._ExtractPart
 0001:00043E40       u_DBMS_Provider._ExtractTailByte
 0001:00039348       u_DBMS_Provider._GetTxtSQL
 0001:0003BCC8       u_DBMS_Provider._GetUrlForRequestType
 0001:00043BA0       u_DBMS_Provider._ParseExtractedValue
 0001:0003B3A8       u_DBMS_Provider._ParseFormValues
 0001:0003ACD4       u_DBMS_Provider._ReloadVersions
 0001:0003A908       u_DBMS_Provider._TrimLeftDelims
 0001:00037E10       u_DBMS_Template..TSQLScriptParser_SQL
 0001:00037F64       u_DBMS_Template.TSQLScriptParser_SQL.Create
 0001:0003805C       u_DBMS_Template.TSQLScriptParser_SQL.Destroy
 0001:0003808C       u_DBMS_Template.TSQLScriptParser_SQL.ExecuteAllSQLs
 0001:0003828C       u_DBMS_Template.TSQLScriptParser_SQL.LineIsEmptyOrComment
 0001:000382C8       u_DBMS_Template.TSQLScriptParser_SQL.LoadScript_Internal
 0001:00038334       u_DBMS_Template.TSQLScriptParser_SQL.LoadScript_SQL
 0001:00038358       u_DBMS_Template.TSQLScriptParser_SQL.LoadScript_XQL
 0001:00038378       u_DBMS_Template.TSQLScriptParser_SQL.ParserFoundProc_SQL
 0001:000385C4       u_DBMS_Template.TSQLScriptParser_SQL.ParseXQL
 0001:00036A2C       u_DBMS_TileEnum..TDBMS_TileEnum
 0001:00036ADC       u_DBMS_TileEnum.TDBMS_TileEnum.CallHostForCurrentRecord
 0001:00036CF8       u_DBMS_TileEnum.TDBMS_TileEnum.CannotSwitchToNextSection
 0001:00036D48       u_DBMS_TileEnum.TDBMS_TileEnum.ConnChanged
 0001:00036EAC       u_DBMS_TileEnum.TDBMS_TileEnum.Create
 0001:00037000       u_DBMS_TileEnum.TDBMS_TileEnum.Destroy
 0001:00037048       u_DBMS_TileEnum.TDBMS_TileEnum.GetNextTile
 0001:000371EC       u_DBMS_TileEnum.TDBMS_TileEnum.GetTablesWithTilesBySelect
 0001:000372EC       u_DBMS_TileEnum.TDBMS_TileEnum.GetZoomAndHighXYFromCurrentTable
 0001:000374A4       u_DBMS_TileEnum.TDBMS_TileEnum.InitTileCache
 0001:000374EC       u_DBMS_TileEnum.TDBMS_TileEnum.InternalClose
 0001:000374FC       u_DBMS_TileEnum.TDBMS_TileEnum.InternalFetch
 0001:0003750C       u_DBMS_TileEnum.TDBMS_TileEnum.OpenNextTableAndFetch
 0001:000378A8       u_DBMS_TileEnum.TDBMS_TileEnum.ReadListOfTables
 0001:00037900       u_DBMS_TileEnum.TDBMS_TileEnum.SetError
 0001:0001F6AC       u_DBMS_Utils.GetModuleFileNameWithoutExt
 0001:0001F7A8       u_DBMS_Utils.NowUTC
 0001:0002138C       u_ExecuteSQLArray..TExecuteSQLArray
 0001:00021264       u_ExecuteSQLArray..TExecuteSQLItem
 0001:00021434       u_ExecuteSQLArray..TSelectInRectList
 0001:000214A4       u_ExecuteSQLArray.TExecuteSQLArray.AddSQLItem
 0001:000214E8       u_ExecuteSQLArray.TExecuteSQLArray.GetSQLItem
 0001:0002150C       u_ExecuteSQLArray.TSelectInRectList.GetSelectInRectItems
 0001:00021524       u_ExecuteSQLArray.TSelectInRectList.Notify
 0001:0003579C       u_Exif_Parser.FindExifInJpeg
 0001:00035758       u_Exif_Parser._FindSection
 0001:000356F0       u_Exif_Parser._GetNextDWORD
 0001:000356DC       u_Exif_Parser._GetNextWord
 0001:00035714       u_Exif_Parser._ReadIFD12
 0001:0004559C       u_exports.ETS_Complete
 0001:000457EC       u_exports.ETS_DeleteTile
 0001:000458B4       u_exports.ETS_EnumTileVersions
 0001:00045AE8       u_exports.ETS_ExecOption
 0001:00045B50       u_exports.ETS_FreeMem
 0001:0004592C       u_exports.ETS_GetTileRectInfo
 0001:00045480       u_exports.ETS_Initialize
 0001:00045710       u_exports.ETS_InsertTile
 0001:00045788       u_exports.ETS_InsertTNE
 0001:00045A20       u_exports.ETS_KillTileEnum
 0001:000459A4       u_exports.ETS_MakeTileEnum
 0001:00045A70       u_exports.ETS_NextTileEnum
 0001:00045698       u_exports.ETS_SelectTile
 0001:00045638       u_exports.ETS_SetInformation
 0001:00045850       u_exports.ETS_SetTileVersion
 0001:000455F0       u_exports.ETS_Sync
 0001:00045544       u_exports.ETS_Uninitialize
 0004:00006394       u_Lang..1
 0003:00004EC0       u_Lang.CAlRfc822DaysOfWeek
 0003:00004EDC       u_Lang.CALRfc822MonthNames
 0001:0003696C       u_Lang.Finalization
 0001:00036704       u_Lang.HTTPDecode
 0002:00000398       u_Lang.u_Lang
 0004:000049F8       u_PStoreTools..3
 0001:0001E81C       u_PStoreTools..TPKeyedCrypter
 0001:0001E744       u_PStoreTools..TPStore
 0001:0001E978       u_PStoreTools.ClearUSBuffer
 0001:0001F668       u_PStoreTools.Finalization
 0001:0001E878       u_PStoreTools.GetPStoreIface
 0004:000049FC       u_PStoreTools.g_PStore
 0001:0001E93C       u_PStoreTools.PrepareForLsa
 0001:0001EF4C       u_PStoreTools.TALLRoutines.Clear
 0001:0001EF60       u_PStoreTools.TALLRoutines.GetKeyBlockLen
 0001:0001EF94       u_PStoreTools.TALLRoutines.InitLib
 0001:0001F28C       u_PStoreTools.TALLRoutines.LsaAvailable
 0001:0001F294       u_PStoreTools.TALLRoutines.LsaFreeBuffer
 0001:0001F2A4       u_PStoreTools.TALLRoutines.LsaReadBuffer
 0001:0001F3E0       u_PStoreTools.TALLRoutines.LsaSaveBuffer
 0001:0001F534       u_PStoreTools.TALLRoutines.OpenKeyByHash
 0001:0001F644       u_PStoreTools.TALLRoutines.UninitLib
 0001:0001EAB4       u_PStoreTools.TPKeyedCrypter.Create
 0001:0001EB4C       u_PStoreTools.TPKeyedCrypter.DecryptBuffer
 0001:0001EB90       u_PStoreTools.TPKeyedCrypter.Destroy
 0001:0001EBCC       u_PStoreTools.TPKeyedCrypter.EncryptBuffer
 0001:0001ECE4       u_PStoreTools.TPKeyedCrypter.KeyAvailable
 0001:0001ECEC       u_PStoreTools.TPKeyedCrypter.LoadSecret
 0001:0001EE40       u_PStoreTools.TPKeyedCrypter.SaveSecret
 0001:0001EA18       u_PStoreTools.TPStore.Create
 0001:0001E9A0       u_PStoreTools.TPStore.CreateDefaultCrypter
 0001:0001E9DC       u_PStoreTools.TPStore.CreateKeyedCrypter
 0001:0001EA80       u_PStoreTools.TPStore.Destroy
 0002:00000304       u_PStoreTools.u_PStoreTools
 0001:0003790C       u_SQLScriptParser..TSQLScriptParser
 0001:00037A38       u_SQLScriptParser.TSQLScriptParser.AddExceptionToErrors
 0001:00037AC0       u_SQLScriptParser.TSQLScriptParser.GetNextDivLineIndex
 0001:00037C48       u_SQLScriptParser.TSQLScriptParser.GetSQLDivider
 0001:00037D24       u_SQLScriptParser.TSQLScriptParser.ParseSQL
 0001:0001B14C       u_StatementHandleCache..TStatementFetchableCache
 0001:0001B0C4       u_StatementHandleCache..TStatementHandleCache
 0001:0001AFBC       u_StatementHandleCache..TStatementHandleNonCached
 0001:0001AEC0       u_StatementHandleCache..TStatementList
 0001:0001B5F0       u_StatementHandleCache.TStatementFetchableCache.CleanupStatementToKeepInList
 0001:0001B1C8       u_StatementHandleCache.TStatementHandleCache.CleanupStatementToKeepInList
 0001:0001B1CC       u_StatementHandleCache.TStatementHandleCache.Create
 0001:0001B28C       u_StatementHandleCache.TStatementHandleCache.Destroy
 0001:0001B330       u_StatementHandleCache.TStatementHandleCache.DoOnNotify
 0001:0001B340       u_StatementHandleCache.TStatementHandleCache.FreeStatement
 0001:0001B3BC       u_StatementHandleCache.TStatementHandleCache.GetStatementHandle
 0001:0001B454       u_StatementHandleCache.TStatementHandleCache.GetStatistics
 0001:0001B4B8       u_StatementHandleCache.TStatementHandleCache.SyncStatements
 0001:0001B57C       u_StatementHandleCache.TStatementHandleNonCached.Create
 0001:0001B5BC       u_StatementHandleCache.TStatementHandleNonCached.FreeStatement
 0001:0001B5CC       u_StatementHandleCache.TStatementHandleNonCached.GetStatementHandle
 0001:0001B5E0       u_StatementHandleCache.TStatementHandleNonCached.GetStatistics
 0001:0001B5EC       u_StatementHandleCache.TStatementHandleNonCached.SyncStatements
 0001:0001B508       u_StatementHandleCache.TStatementList.ExtractLast
 0001:0001B554       u_StatementHandleCache.TStatementList.Notify
 0004:000049E4       u_Synchronizer..2
 0001:00019FD4       u_Synchronizer..ESynchronizerNotAvailable
 0001:0001A120       u_Synchronizer..TSynchronizerAbstract
 0001:0001A210       u_Synchronizer..TSynchronizerCS
 0001:0001A2F8       u_Synchronizer..TSynchronizerCSSC
 0001:0001A0B4       u_Synchronizer..TSynchronizerFactory
 0001:0001A3E4       u_Synchronizer..TSynchronizerRes
 0001:0001A4D4       u_Synchronizer..TSynchronizerSRW
 0001:0001AE7C       u_Synchronizer.Finalization
 0004:000049E8       u_Synchronizer.GSynchronizerFactory
 0001:0001A648       u_Synchronizer.MakeSyncRW_Std
 0001:0001A5D4       u_Synchronizer.MakeSyncRW_Var
 0001:0001A5A4       u_Synchronizer.MakeSyncSection
 0001:0001A534       u_Synchronizer.RaiseNotAvailable
 0001:0001A81C       u_Synchronizer.TSynchronizerCS.BeginRead
 0001:0001A82C       u_Synchronizer.TSynchronizerCS.BeginWrite
 0001:0001A840       u_Synchronizer.TSynchronizerCS.Create
 0001:0001A8EC       u_Synchronizer.TSynchronizerCS.Destroy
 0001:0001A924       u_Synchronizer.TSynchronizerCS.EndRead
 0001:0001A934       u_Synchronizer.TSynchronizerCS.EndWrite
 0001:0001A6E4       u_Synchronizer.TSynchronizerCSSC.BeginRead
 0001:0001A6F4       u_Synchronizer.TSynchronizerCSSC.BeginWrite
 0001:0001A708       u_Synchronizer.TSynchronizerCSSC.Create
 0001:0001A7C4       u_Synchronizer.TSynchronizerCSSC.Destroy
 0001:0001A7FC       u_Synchronizer.TSynchronizerCSSC.EndRead
 0001:0001A80C       u_Synchronizer.TSynchronizerCSSC.EndWrite
 0001:0001A944       u_Synchronizer.TSynchronizerFactory.Create
 0001:0001A994       u_Synchronizer.TSynchronizerFactory.GetEventPairInitData
 0001:0001A998       u_Synchronizer.TSynchronizerFactory.GetSyncResInitData
 0001:0001A9A8       u_Synchronizer.TSynchronizerFactory.GetSyncSRWInitData
 0001:0001A9B8       u_Synchronizer.TSynchronizerFactory.InternalInitDLL
 0001:0001ABD8       u_Synchronizer.TSynchronizerRes.BeginRead
 0001:0001ABF0       u_Synchronizer.TSynchronizerRes.BeginWrite
 0001:0001AC10       u_Synchronizer.TSynchronizerRes.Create
 0001:0001ACDC       u_Synchronizer.TSynchronizerRes.Destroy
 0001:0001AD18       u_Synchronizer.TSynchronizerRes.EndRead
 0001:0001AD30       u_Synchronizer.TSynchronizerRes.EndWrite
 0001:0001AD48       u_Synchronizer.TSynchronizerSRW.BeginRead
 0001:0001AD60       u_Synchronizer.TSynchronizerSRW.BeginWrite
 0001:0001AD78       u_Synchronizer.TSynchronizerSRW.Create
 0001:0001AE4C       u_Synchronizer.TSynchronizerSRW.EndRead
 0001:0001AE64       u_Synchronizer.TSynchronizerSRW.EndWrite
 0002:00000294       u_Synchronizer.u_Synchronizer
 0001:0001C9F0       u_TileArea..TTileArea
 0001:0001CA64       u_TileArea.TTileArea.CalcGreaterZoom
 0001:0001CAA0       u_TileArea.TTileArea.CalcSmallerZoom
 0001:0001CAFC       u_TileArea.TTileArea.CheckTileInRect
 0001:0001CB24       u_TileArea.TTileArea.Create
 0001:0001CBC8       u_TileArea.TTileArea.EnableZoomInZoomBits
 0001:0001CC98       u_TileArea.TTileArea.ParseTileAreaItem
 0001:0001CDD0       u_TileArea.TTileArea.TileInArea
 0003:00004EB8       u_Tile_Parser.c_ZeroVersionNumber_DateTime
 0001:00035AB4       u_Tile_Parser.ExtractFromTag
 0001:00035B74       u_Tile_Parser.GetVersionNumberForDateTimeAsZeroDifference
 0001:000363E4       u_Tile_Parser.ParseExifForNMC
 0001:00035B94       u_Tile_Parser.ParseFullyQualifiedDateTime
 0001:00035E0C       u_Tile_Parser.ParseLatestXMLtoVersion
 0001:0001C5A4       u_ZoomList..TZoomList
 0001:0001C600       u_ZoomList.TZoomList.Available
 0001:0001C608       u_ZoomList.TZoomList.Create
 0001:0001C660       u_ZoomList.TZoomList.EnableZoomInZoomBits
 0001:0001C674       u_ZoomList.TZoomList.ForeachStringPart
 0001:0001C784       u_ZoomList.TZoomList.GetHash
 0001:0001C788       u_ZoomList.TZoomList.ZoomInList
 0001:0001C79C       u_ZoomList.TZoomList.ZoomListToZoomBitsSub
 0004:00004988       Variants..81
 0001:0000E67C       Variants..EVariantArrayCreateError
 0001:0000E614       Variants..EVariantArrayLockedError
 0001:0000E5B0       Variants..EVariantBadIndexError
 0001:0000E54C       Variants..EVariantBadVarTypeError
 0001:0000E814       Variants..EVariantDispatchError
 0001:0000E4E8       Variants..EVariantInvalidArgError
 0001:0000E3BC       Variants..EVariantInvalidOpError
 0001:0000E6E4       Variants..EVariantNotImplError
 0001:0000E748       Variants..EVariantOutOfMemoryError
 0001:0000E484       Variants..EVariantOverflowError
 0001:0000E420       Variants..EVariantTypeCastError
 0001:0000E7B0       Variants..EVariantUnexpectedError
 0001:0000E2F0       Variants..TCustomVariantType
 0001:0000EDC4       Variants.@DispInvokeError
 0001:00010EC8       Variants.@VarAddRef
 0001:0000F09C       Variants.@VarClear
 0001:0000F0B0       Variants.@VarClr
 0001:0000F3C4       Variants.@VarCopy
 0001:00010E68       Variants.@VarFromBool
 0001:00010E90       Variants.@VarFromWStr
 0001:0000FEF8       Variants.@VarToBool
 0001:0000FBA4       Variants.@VarToBoolean
 0001:0000F5A0       Variants.@VarToInteger
 0001:000101F4       Variants.@VarToLStr
 0001:00010914       Variants.@VarToWStr
 0003:00000A28       Variants.BooleanToStringRule
 0001:0000FF74       Variants.BoolToWStrViaOS
 0004:00004980       Variants.ChangeAnyProc
 0003:00000A2C       Variants.CInvalidCustomVariantType
 0004:0000497C       Variants.ClearAnyProc
 0001:00011204       Variants.ClearVariantTypeList
 0003:00000A84       Variants.CRelationshipToBoolean
 0003:00000A30       Variants.CText
 0001:0000FF04       Variants.CurrToWStrViaOS
 0001:0000FF3C       Variants.DateToWStrViaOS
 0004:00004968       Variants.EmptyParam
 0001:00011564       Variants.Finalization
 0001:000114A8       Variants.FindCustomVariantType
 0001:0000ED40       Variants.HandleConversionException
 0001:0000EE18       Variants.InBounds
 0001:0000F0B8       Variants.InBounds
 0001:0000F0E8       Variants.Increment
 0001:0000EE48       Variants.Increment
 0004:0000498C       Variants.LVarTypes
 0004:00004990       Variants.LVarTypeSync
 0003:00000A24       Variants.NullAsStringValue
 0003:00000A20       Variants.NullStrictConvert
 0004:00004984       Variants.RefAnyProc
 0001:000111D4       Variants.SetClearVarToEmptyParam
 0001:000111BC       Variants.SetVarAsError
 0001:00011270       Variants.TCustomVariantType.BinaryOp
 0001:0001127C       Variants.TCustomVariantType.Cast
 0001:000112B4       Variants.TCustomVariantType.CastTo
 0001:00011340       Variants.TCustomVariantType.CastToOle
 0001:000112FC       Variants.TCustomVariantType.Compare
 0001:00011308       Variants.TCustomVariantType.CompareOp
 0001:0001137C       Variants.TCustomVariantType.Destroy
 0001:0001145C       Variants.TCustomVariantType.DispInvoke
 0001:00011408       Variants.TCustomVariantType.IsClear
 0001:0001140C       Variants.TCustomVariantType.LeftPromotion
 0001:00011420       Variants.TCustomVariantType.OlePromotion
 0001:00011480       Variants.TCustomVariantType.QueryInterface
 0001:00011428       Variants.TCustomVariantType.RaiseCastError
 0001:00011438       Variants.TCustomVariantType.RaiseDispError
 0001:00011430       Variants.TCustomVariantType.RaiseInvalidOp
 0001:00011440       Variants.TCustomVariantType.RightPromotion
 0001:00011454       Variants.TCustomVariantType.UnaryOp
 0001:00011468       Variants.TCustomVariantType._AddRef
 0001:00011474       Variants.TCustomVariantType._Release
 0001:0000EAAC       Variants.TranslateResult
 0001:0000EEA4       Variants.VarArrayClear
 0001:0000F144       Variants.VarArrayCopyForEach
 0001:0000EA58       Variants.VarArrayCreateError
 0001:0000E878       Variants.VarCastError
 0001:0000E8CC       Variants.VarCastError
 0001:0000F020       Variants.VarClearDeep
 0001:0000F310       Variants.VarCopyCopyProc
 0001:0000F318       Variants.VarCopyDeep
 0004:00004978       Variants.VarDispProc
 0002:00000144       Variants.Variants
 0001:0000E968       Variants.VarInvalidOp
 0001:0000E9BC       Variants.VarOverflowError
 0001:0000ED00       Variants.VarResultCheck
 0001:0000ED0C       Variants.VarResultCheck
 0001:0000FAF4       Variants.VarToBoolAny
 0001:0000F9F0       Variants.VarToBoolAsString
 0001:0000FB58       Variants.VarToBoolCustom
 0001:0000FAB4       Variants.VarToBoolViaOS
 0001:0000F4F8       Variants.VarToIntAny
 0001:0000F408       Variants.VarToIntAsString
 0001:0000F55C       Variants.VarToIntCustom
 0001:0000F4BC       Variants.VarToIntViaOS
 0001:00010108       Variants.VarToLStrAny
 0001:0001016C       Variants.VarToLStrCustom
 0001:0001003C       Variants.VarToLStrViaOS
 0001:000107E8       Variants.VarToWStrAny
 0001:0001084C       Variants.VarToWStrCustom
 0001:00010730       Variants.VarToWStrViaOS
 0001:0001104C       Variants.VarTypeAsText
 0004:00004964       VarUtils..5
 0001:0000DD40       VarUtils.BackupVarBoolFromStr
 0001:0000DEA4       VarUtils.BackupVarBStrFromBool
 0001:0000DDC0       VarUtils.BackupVarBStrFromCy
 0001:0000DE30       VarUtils.BackupVarBStrFromDate
 0001:0000DCD4       VarUtils.BackupVarCyFromStr
 0001:0000DC68       VarUtils.BackupVarDateFromStr
 0001:0000DB24       VarUtils.BackupVarI4FromStr
 0001:0000DAD0       VarUtils.BackupVariantChangeTypeEx
 0001:0000DB90       VarUtils.BackupVarR4FromStr
 0001:0000DBFC       VarUtils.BackupVarR8FromStr
 0001:0000DB0C       VarUtils.BiUnimplemented
 0001:0000DB18       VarUtils.CmpUnimplemented
 0003:00000A18       VarUtils.CResult
 0001:0000E270       VarUtils.Finalization
 0001:0000DF38       VarUtils.FindProc
 0001:0000DF64       VarUtils.InitializeVarUtils
 0001:0000DF18       VarUtils.SafeArrayCreate
 0001:0000DF20       VarUtils.SafeArrayGetLBound
 0001:0000DF28       VarUtils.SafeArrayGetUBound
 0001:0000DF30       VarUtils.SafeArrayPtrOfIndex
 0001:0000DB00       VarUtils.UniUnimplemented
 0004:00004918       VarUtils.VarAdd
 0004:00004930       VarUtils.VarAnd
 0004:00004954       VarUtils.VarBoolFromStr
 0004:00004960       VarUtils.VarBstrFromBool
 0004:00004958       VarUtils.VarBstrFromCy
 0004:0000495C       VarUtils.VarBstrFromDate
 0004:0000493C       VarUtils.VarCmp
 0004:00004950       VarUtils.VarCyFromStr
 0004:0000494C       VarUtils.VarDateFromStr
 0004:00004924       VarUtils.VarDiv
 0004:00004940       VarUtils.VarI4FromStr
 0001:0000DAC8       VarUtils.VariantChangeType
 0004:0000490C       VarUtils.VariantChangeTypeEx
 0001:0000DAB8       VarUtils.VariantClear
 0001:0000DAC0       VarUtils.VariantCopy
 0001:0000DAB0       VarUtils.VariantInit
 0004:00004928       VarUtils.VarIDiv
 0004:0000492C       VarUtils.VarMod
 0004:00004920       VarUtils.VarMul
 0004:00004910       VarUtils.VarNeg
 0004:00004914       VarUtils.VarNot
 0004:00004934       VarUtils.VarOr
 0004:00004944       VarUtils.VarR4FromStr
 0004:00004948       VarUtils.VarR8FromStr
 0004:0000491C       VarUtils.VarSub
 0002:00000134       VarUtils.VarUtils
 0004:00004938       VarUtils.VarXor
 0004:000027FC       Windows..3
 0001:00005C24       Windows.CharNext
 0001:00005C2C       Windows.CharToOemA
 0001:00005C34       Windows.CharUpperBuff
 0001:00005A7C       Windows.CloseHandle
 0001:00005A84       Windows.CompareString
 0001:00005C54       Windows.CopyMemory
 0001:00005A8C       Windows.CreateDirectory
 0001:00005A94       Windows.CreateEvent
 0001:00005A9C       Windows.CreateFile
 0001:00005AA4       Windows.DeleteCriticalSection
 0001:00005AAC       Windows.EnterCriticalSection
 0001:00005AB4       Windows.EnumCalendarInfoA
 0001:00005ABC       Windows.FileTimeToDosDateTime
 0001:00005AC4       Windows.FileTimeToLocalFileTime
 0001:00005C5C       Windows.Finalization
 0001:00005ACC       Windows.FindClose
 0001:00005AD4       Windows.FindFirstFile
 0001:00005ADC       Windows.FindNextFile
 0001:00005AE4       Windows.FormatMessage
 0001:00005AEC       Windows.FreeLibrary
 0001:00005AF4       Windows.GetCPInfo
 0001:00005AFC       Windows.GetCurrentThreadId
 0001:00005B04       Windows.GetDateFormat
 0001:00005B0C       Windows.GetDiskFreeSpaceA
 0001:00005B14       Windows.GetFileAttributes
 0001:00005B1C       Windows.GetFileSize
 0001:00005B24       Windows.GetFileTime
 0001:00005B2C       Windows.GetFullPathName
 0001:00005B34       Windows.GetLastError
 0001:00005B44       Windows.GetLocaleInfo
 0001:00005B3C       Windows.GetLocalTime
 0001:00005B4C       Windows.GetModuleFileName
 0001:00005B54       Windows.GetModuleHandle
 0001:00005B5C       Windows.GetPrivateProfileString
 0001:00005B64       Windows.GetProcAddress
 0001:00005B6C       Windows.GetProcessHeap
 0001:00005B74       Windows.GetStdHandle
 0001:00005C3C       Windows.GetSystemMetrics
 0001:00005B7C       Windows.GetSystemTime
 0001:00005B84       Windows.GetThreadLocale
 0001:00005B8C       Windows.GetVersionEx
 0001:00005B94       Windows.HeapAlloc
 0001:00005B9C       Windows.HeapFree
 0001:00005BA4       Windows.HeapReAlloc
 0004:00002800       Windows.HtmlHelpModule
 0001:00005BAC       Windows.InitializeCriticalSection
 0001:00005BB4       Windows.InitializeCriticalSectionAndSpinCount
 0001:00005BBC       Windows.IsValidLocale
 0001:00005BC4       Windows.LeaveCriticalSection
 0001:00005BCC       Windows.LoadLibrary
 0001:00005BD4       Windows.LoadLibraryEx
 0001:00005C44       Windows.LoadString
 0001:00005C4C       Windows.MessageBox
 0001:00005BDC       Windows.ReadFile
 0001:00005A64       Windows.RegCloseKey
 0001:00005A6C       Windows.RegCreateKeyExW
 0001:00005A74       Windows.RegOpenKeyExW
 0001:00005BE4       Windows.ResetEvent
 0001:00005BEC       Windows.SetEndOfFile
 0001:00005BF4       Windows.SetEvent
 0001:00005BFC       Windows.SetFilePointer
 0001:00005C04       Windows.VirtualQuery
 0001:00005C0C       Windows.WaitForSingleObject
 0002:00000098       Windows.Windows
 0001:00005C14       Windows.WriteFile
 0001:00005C1C       Windows.WritePrivateProfileString
 0003:000016A0       ZLib...
 0003:00001628       ZLib...
 0003:0000156C       ZLib...
 0004:00005AA4       ZLib...
 0003:000013E0       ZLib...
 0001:00027288       ZLib...
 0004:00004A04       ZLib...
 0003:00001134       ZLib...
 0001:000268FC       ZLib...
 0003:000010C0       ZLib...
 0003:00001008       ZLib...
 0001:00023FB4       ZLib..ECompressionError
 0001:00024014       ZLib..EDecompressionError
 0001:00023F5C       ZLib..EZlibError
 0001:0002A268       ZLib.adler32
 0001:000240B0       ZLib.CCheck
 0001:00024170       ZLib.CompressBuf
 0001:00024110       ZLib.DCheck
 0001:000242C8       ZLib.DecompressBuf
 0001:00024B9C       ZLib.deflate
 0001:00024F1C       ZLib.deflateEnd
 0001:00024418       ZLib.deflateInit_
 0001:000261B0       ZLib.inflate
 0001:00025FFC       ZLib.inflateEnd
 0001:00026184       ZLib.inflateInit_
 0001:00025F90       ZLib.inflateReset
 0001:0002A618       ZLib.inflate_blocks
 0001:0002B8D0       ZLib.inflate_blocks_free
 0001:0002A570       ZLib.inflate_blocks_new
 0001:0002A4A0       ZLib.inflate_blocks_reset
 0001:0002B9C4       ZLib.inflate_codes
 0001:0002C69C       ZLib.inflate_codes_free
 0001:0002B960       ZLib.inflate_codes_new
 0001:0002C888       ZLib.inflate_fast
 0001:0002C6BC       ZLib.inflate_flush
 0001:0002B91C       ZLib.inflate_set_dictionary
 0001:00026E90       ZLib.inflate_trees_bits
 0001:00026F04       ZLib.inflate_trees_dynamic
 0001:00027034       ZLib.inflate_trees_fixed
 0001:000271FC       ZLib.inflate_trees_free
 0001:0002409C       ZLib.zlibAllocMem
 0001:000240A8       ZLib.zlibFreeMem
 0003:0000165C       ZLib._inflate_mask
 0001:00024088       ZLib._memcpy
 0001:00024074       ZLib._memset
 0001:00028FE0       ZLib._tr_align
 0001:000293CC       ZLib._tr_flush_block
 0001:0002758C       ZLib._tr_init
 0001:00028EB8       ZLib._tr_stored_block
 0001:0002970C       ZLib._tr_tally


  Address             Publics by Value

 0001:0000001C       System..TObject
 0001:00000110       System..TInterfacedObject
 0001:00000170       System.GetStdHandle
 0001:00000178       System.RaiseException
 0001:00000180       System.RtlUnwind
 0001:00000188       System.UnhandledExceptionFilter
 0001:00000190       System.WriteFile
 0001:00000198       System.CharNext
 0001:000001A0       System.ExitProcess
 0001:000001A8       System.MessageBox
 0001:000001B0       System.FindClose
 0001:000001B8       System.FindFirstFile
 0001:000001C0       System.FreeLibrary
 0001:000001C8       System.GetCommandLine
 0001:000001D0       System.GetLocaleInfo
 0001:000001D8       System.GetModuleFileName
 0001:000001E0       System.GetModuleHandle
 0001:000001E8       System.GetProcAddress
 0001:000001F0       System.GetStartupInfo
 0001:000001F8       System.GetThreadLocale
 0001:00000200       System.LoadLibraryEx
 0001:00000208       System.LoadString
 0001:00000210       System.lstrcpyn
 0001:00000218       System.@strlen
 0001:00000220       System.MultiByteToWideChar
 0001:00000228       System.RegCloseKey
 0001:00000230       System.RegOpenKeyEx
 0001:00000238       System.RegQueryValueEx
 0001:00000240       System.WideCharToMultiByte
 0001:00000248       System.VirtualQuery
 0001:00000250       System.SysAllocStringLen
 0001:00000258       System.SysReAllocStringLen
 0001:00000260       System.SysFreeString
 0001:00000268       System.InterlockedIncrement
 0001:00000270       System.InterlockedDecrement
 0001:00000278       System.GetCurrentThreadId
 0001:00000280       System.GetCmdShow
 0001:000002A4       System.VirtualAlloc
 0001:000002AC       System.VirtualFree
 0001:000002B4       System.Sleep
 0001:000002BC       System.DestroyWindow
 0001:00000324       System.LockCmpxchg
 0001:0000032C       System.Move12
 0001:00000340       System.Move20
 0001:00000360       System.Move28
 0001:0000038C       System.Move36
 0001:000003AC       System.Move44
 0001:000003D0       System.Move52
 0001:000003FC       System.Move60
 0001:0000042C       System.Move68
 0001:00000464       System.MoveX16L4
 0001:00000494       System.MoveX8L4
 0001:000004B0       System.RemoveMediumFreeBlock
 0001:000004F0       System.InsertMediumBlockIntoBin
 0001:00000550       System.BinMediumSequentialFeedRemainder
 0001:000005BC       System.AllocNewSequentialFeedMediumPool
 0001:00000634       System.LockLargeBlocks
 0001:0000067C       System.AllocateLargeBlock
 0001:000006E0       System.FreeLargeBlock
 0001:00000784       System.ReallocateLargeBlock
 0001:000008D0       System.SysGetMem
 0001:00000C54       System.SysFreeMem
 0001:00000E4C       System.SysReallocMem
 0001:00001164       System.SysAllocMem
 0001:00001194       System.NextMediumBlock
 0001:000011B8       System.GetFirstMediumBlockInPool
 0001:000011F8       System.GetFirstAndLastSmallBlockInPool
 0001:00001234       System.CardinalToStrBuf
 0001:00001350       System.AppendStringToBuffer
 0001:00001368       System.IsValidVMTAddress
 0001:000013E4       System.InternalIsValidClass
 0001:00001464       System.GetObjectClass
 0001:0000148C       System.LockExpectedMemoryLeaksList
 0001:00001500       System.SysRegisterExpectedMemoryLeak
 0001:00001540       System.SysUnregisterExpectedMemoryLeak
 0001:00001598       System.CheckSmallBlockPoolForLeaks
 0001:000016E4       System.ScanForMemoryLeaks
 0001:00001B5C       System.BuildBlockTypeLookupTable
 0001:00001BA0       System.InitializeMemoryManager
 0001:00001CC8       System.FreeAllMemory
 0001:00001D58       System.FinalizeMemoryManager
 0001:00001DAC       System.AllocMem
 0001:00001DC4       System.@GetMem
 0001:00001DE0       System.@FreeMem
 0001:00001DF8       System.@ReallocMem
 0001:00001E48       System.ExceptObject
 0001:00001E68       System.ExceptAddr
 0001:00001E88       System.AcquireExceptionObject
 0001:00001EBC       System.RunErrorAt
 0001:00001EC8       System.ErrorAt
 0001:00001F14       System.Error
 0001:00001F20       System.@_IOTest
 0001:00001F40       System.SetInOutRes
 0001:00001F50       System.@Copy
 0001:00001F94       System.IOResult
 0001:00001FB4       System.Move
 0001:000020B4       System.@ROUND
 0001:000020C0       System.@AbstractError
 0001:000020DC       System.InternalFlush
 0001:00002124       System.Flush
 0001:00002130       System.@Close
 0001:00002188       System.@PStrNCat
 0001:000021B8       System.@PStrCpy
 0001:000021C4       System.@AStrCmp
 0001:00002234       System.@FillChar
 0001:000022D0       System.@ValLong
 0001:000023A4       System.FPower10
 0001:000023AC       System.@Pow10
 0001:00002690       System.GetKeyboardType
 0001:00002698       System.@isNECWindows
 0001:000026C8       System.@FpuMaskInit
 0001:0000278C       System.@FpuInit
 0001:00002798       System.@BoundErr
 0001:000027A0       System.@IntOver
 0001:000027A8       System.TObject.ClassType
 0001:000027B0       System.TObject.ClassName
 0001:000027C4       System.TObject.ClassParent
 0001:000027D0       System.TObject.NewInstance
 0001:000027EC       System.TObject.FreeInstance
 0001:00002800       System.TObject.InstanceSize
 0001:00002808       System.TObject.Create
 0001:00002828       System.TObject.Destroy
 0001:00002838       System.TObject.Free
 0001:00002844       System.TObject.InitInstance
 0001:0000289C       System.TObject.CleanupInstance
 0001:000028BC       System.InvokeImplGetter
 0001:000028EC       System.TObject.GetInterface
 0001:00002980       System.TObject.GetInterfaceEntry
 0001:000029C4       System.@IsClass
 0001:000029E8       System.@AsClass
 0001:00002A04       System.GetDynaMethod
 0001:00002A34       System.@CallDynaInst
 0001:00002A4C       System.TObject.InheritsFrom
 0001:00002A60       System.TObject.SafeCallException
 0001:00002A68       System.TObject.DefaultHandler
 0001:00002A6C       System.TObject.AfterConstruction
 0001:00002A70       System.TObject.BeforeDestruction
 0001:00002A74       System.TObject.Dispatch
 0001:00002A9C       System.@ClassCreate
 0001:00002AEC       System.@ClassDestroy
 0001:00002AF4       System.@AfterConstruction
 0001:00002B44       System.@BeforeDestruction
 0001:00002B54       System.NotifyReRaise
 0001:00002B70       System.NotifyNonDelphiException
 0001:00002B94       System.NotifyExcept
 0001:00002BAC       System.NotifyOnExcept
 0001:00002BC0       System.NotifyAnyExcept
 0001:00002BD4       System.CheckJmp
 0001:00002BF4       System.NotifyExceptFinally
 0001:00002C1C       System.NotifyTerminate
 0001:00002C38       System.NotifyUnhandled
 0001:00002C58       System.@HandleAnyException
 0001:00002D84       System.@HandleOnException
 0001:00002F0C       System.@HandleFinally
 0001:00002FB4       System.@HandleFinallyInternal
 0001:00002FEC       System.@RaiseExcept
 0001:00003014       System.@RaiseAgain
 0001:00003068       System.@DoneExcept
 0001:00003098       System.@TryFinallyExit
 0001:000030B0       System.MapToRunError
 0001:00003150       System.@ExceptionHandler
 0001:000031F0       System.SetExceptionHandler
 0001:00003210       System.UnsetExceptionHandler
 0001:00003238       System.FinalizeUnits
 0001:0000329C       System.InitUnits
 0001:00003304       System.@StartLib
 0001:000033CC       System.@InitResStringImports
 0001:000033F4       System.@InitImports
 0001:00003418       System.@InitWideStrings
 0001:00003434       System.MakeErrorMessage
 0001:00003498       System.ExitDll
 0001:000034C8       System.WriteErrorMessage
 0001:00003554       System.@Halt0
 0001:00003630       System.@Halt
 0001:0000363C       System.@RunError
 0001:00003648       System.@Assert
 0001:00003668       System.@LStrClr
 0001:0000368C       System.@LStrArrayClr
 0001:000036BC       System.@LStrAsg
 0001:00003700       System.@LStrLAsg
 0001:0000372C       System.@NewAnsiString
 0001:00003758       System.@LStrFromPCharLen
 0001:00003788       System.CharFromWChar
 0001:000037A8       System.WCharFromChar
 0001:000037C4       System.@LStrFromPWCharLen
 0001:00003850       System.@LStrFromChar
 0001:00003860       System.@LStrFromPChar
 0001:00003890       System.@LStrFromPWChar
 0001:000038CC       System.@LStrFromString
 0001:000038D8       System.@LStrFromArray
 0001:000038F0       System.@LStrFromWStr
 0001:00003904       System.@LStrToString
 0001:00003928       System.@LStrLen
 0001:00003934       System.@LStrCat
 0001:00003980       System.@LStrCat3
 0001:000039FC       System.@LStrCatN
 0001:00003A90       System.@LStrCmp
 0001:00003AE8       System.@LStrAddRef
 0001:00003AF8       System.@LStrToPChar
 0001:00003B0C       System.InternalUniqueString
 0001:00003B50       System.UniqueString
 0001:00003B58       System.@UniqueStringA
 0001:00003B60       System.@LStrCopy
 0001:00003BA0       System.@LStrDelete
 0001:00003BE8       System.@LStrInsert
 0001:00003C44       System.Pos
 0001:00003D88       System.@LStrSetLength
 0001:00003DEC       System.WStrError
 0001:00003DF4       System.@NewWideString
 0001:00003E0C       System.WStrSet
 0001:00003E1C       System.@WStrClr
 0001:00003E34       System.@WStrArrayClr
 0001:00003E58       System.@WStrAsg
 0001:00003E80       System.@WStrLAsg
 0001:00003E88       System.@WStrFromPCharLen
 0001:00003F14       System.@WStrFromPWCharLen
 0001:00003F38       System.@WStrFromPWChar
 0001:00003F74       System.@WStrFromLStr
 0001:00003F84       System.@WStrToPWChar
 0001:00003F94       System.@WStrLen
 0001:00003FA0       System.@WStrCat
 0001:00004000       System.@WStrCat3
 0001:00004070       System.@WStrCatN
 0001:000040B8       System.@WStrCmp
 0001:0000413C       System.@WStrCopy
 0001:00004188       System.Pos
 0001:000041D8       System.@WStrSetLength
 0001:0000421C       System.@WStrAddRef
 0001:0000423C       System.@InitializeRecord
 0001:0000426C       System.@InitializeArray
 0001:00004300       System.@Initialize
 0001:0000430C       System.@FinalizeRecord
 0001:00004340       System.@VarClr
 0001:00004358       System.@FinalizeArray
 0001:00004444       System.@Finalize
 0001:00004450       System.@VarCopy
 0001:00004468       System.@CopyRecord
 0001:00004584       System.@CopyArray
 0001:0000467C       System.@New
 0001:00004690       System.@Dispose
 0001:000046A0       System.@DispCallByIDError
 0001:000046A8       System.@_llmul
 0001:000046CC       System.@_llmod
 0001:00004748       System.@DynArrayLength
 0001:00004750       System.@DynArrayHigh
 0001:00004758       System.CopyArray
 0001:00004768       System.FinalizeArray
 0001:00004770       System.DynArrayClear
 0001:00004778       System.DynArraySetLength
 0001:00004904       System.@DynArraySetLength
 0001:00004910       System.@DynArrayClear
 0001:0000494C       System.@DynArrayAsg
 0001:00004974       System.FindHInstance
 0001:0000499C       System.DelayLoadResourceModule
 0001:000049E4       System.FindResourceHInstance
 0001:00004A1C       System.FindBS
 0001:00004A3C       System.ToLongPath
 0001:00004C00       System.LoadResourceModule
 0001:00004E70       System.AddModuleUnloadProc
 0001:00004E78       System.RemoveModuleUnloadProc
 0001:00004E80       System.AddModuleUnloadProc
 0001:00004EA0       System.RemoveModuleUnloadProc
 0001:00004F04       System.NotifyModuleUnload
 0001:00004F60       System.RegisterModule
 0001:00004F70       System.UnregisterModule
 0001:00004FE0       System.@IntfClear
 0001:00004FF8       System.@IntfCopy
 0001:00005024       System.@IntfCast
 0001:00005054       System.@IntfAddRef
 0001:00005060       System.TInterfacedObject.AfterConstruction
 0001:0000506C       System.TInterfacedObject.BeforeDestruction
 0001:0000507C       System.TInterfacedObject.NewInstance
 0001:0000508C       System.TInterfacedObject.QueryInterface
 0001:000050B4       System.TInterfacedObject._AddRef
 0001:000050C8       System.TInterfacedObject._Release
 0001:000050F0       System.GetMemory
 0001:00005100       System.FreeMemory
 0001:00005118       System.UnicodeToUtf8
 0001:000051F4       System.Utf8ToUnicode
 0001:00005324       System.UTF8Encode
 0001:000053E0       System.UTF8Decode
 0001:00005498       System.AnsiToUtf8
 0001:000054E8       System.LoadResString
 0001:00005540       System.GetACP
 0001:00005548       System.Finalization
 0001:000055A8       SysInit.LocalAlloc
 0001:000055B0       SysInit.LocalFree
 0001:000055B8       SysInit.TlsAlloc
 0001:000055C0       SysInit.TlsFree
 0001:000055C8       SysInit.TlsGetValue
 0001:000055D0       SysInit.TlsSetValue
 0001:000055D8       SysInit.AllocTlsBuffer
 0001:000055E4       SysInit.GetTlsSize
 0001:000055EC       SysInit.InitThreadTLS
 0001:00005630       SysInit.InitProcessTLS
 0001:0000565C       SysInit.ExitThreadTLS
 0001:00005694       SysInit.ExitProcessTLS
 0001:000056B8       SysInit.@GetTls
 0001:000056F8       SysInit.InitializeModule
 0001:00005704       SysInit.@InitLib
 0001:00005A64       Windows.RegCloseKey
 0001:00005A6C       Windows.RegCreateKeyExW
 0001:00005A74       Windows.RegOpenKeyExW
 0001:00005A7C       Windows.CloseHandle
 0001:00005A84       Windows.CompareString
 0001:00005A8C       Windows.CreateDirectory
 0001:00005A94       Windows.CreateEvent
 0001:00005A9C       Windows.CreateFile
 0001:00005AA4       Windows.DeleteCriticalSection
 0001:00005AAC       Windows.EnterCriticalSection
 0001:00005AB4       Windows.EnumCalendarInfoA
 0001:00005ABC       Windows.FileTimeToDosDateTime
 0001:00005AC4       Windows.FileTimeToLocalFileTime
 0001:00005ACC       Windows.FindClose
 0001:00005AD4       Windows.FindFirstFile
 0001:00005ADC       Windows.FindNextFile
 0001:00005AE4       Windows.FormatMessage
 0001:00005AEC       Windows.FreeLibrary
 0001:00005AF4       Windows.GetCPInfo
 0001:00005AFC       Windows.GetCurrentThreadId
 0001:00005B04       Windows.GetDateFormat
 0001:00005B0C       Windows.GetDiskFreeSpaceA
 0001:00005B14       Windows.GetFileAttributes
 0001:00005B1C       Windows.GetFileSize
 0001:00005B24       Windows.GetFileTime
 0001:00005B2C       Windows.GetFullPathName
 0001:00005B34       Windows.GetLastError
 0001:00005B3C       Windows.GetLocalTime
 0001:00005B44       Windows.GetLocaleInfo
 0001:00005B4C       Windows.GetModuleFileName
 0001:00005B54       Windows.GetModuleHandle
 0001:00005B5C       Windows.GetPrivateProfileString
 0001:00005B64       Windows.GetProcAddress
 0001:00005B6C       Windows.GetProcessHeap
 0001:00005B74       Windows.GetStdHandle
 0001:00005B7C       Windows.GetSystemTime
 0001:00005B84       Windows.GetThreadLocale
 0001:00005B8C       Windows.GetVersionEx
 0001:00005B94       Windows.HeapAlloc
 0001:00005B9C       Windows.HeapFree
 0001:00005BA4       Windows.HeapReAlloc
 0001:00005BAC       Windows.InitializeCriticalSection
 0001:00005BB4       Windows.InitializeCriticalSectionAndSpinCount
 0001:00005BBC       Windows.IsValidLocale
 0001:00005BC4       Windows.LeaveCriticalSection
 0001:00005BCC       Windows.LoadLibrary
 0001:00005BD4       Windows.LoadLibraryEx
 0001:00005BDC       Windows.ReadFile
 0001:00005BE4       Windows.ResetEvent
 0001:00005BEC       Windows.SetEndOfFile
 0001:00005BF4       Windows.SetEvent
 0001:00005BFC       Windows.SetFilePointer
 0001:00005C04       Windows.VirtualQuery
 0001:00005C0C       Windows.WaitForSingleObject
 0001:00005C14       Windows.WriteFile
 0001:00005C1C       Windows.WritePrivateProfileString
 0001:00005C24       Windows.CharNext
 0001:00005C2C       Windows.CharToOemA
 0001:00005C34       Windows.CharUpperBuff
 0001:00005C3C       Windows.GetSystemMetrics
 0001:00005C44       Windows.LoadString
 0001:00005C4C       Windows.MessageBox
 0001:00005C54       Windows.CopyMemory
 0001:00005C5C       Windows.Finalization
 0001:00005CD0       SysUtils..Exception
 0001:00005D38       SysUtils..EAbort
 0001:00005D8C       SysUtils..EHeapException
 0001:00005DE8       SysUtils..EOutOfMemory
 0001:00005E44       SysUtils..EInOutError
 0001:00005E9C       SysUtils..EExternal
 0001:00005EF4       SysUtils..EExternalException
 0001:00005F54       SysUtils..EIntError
 0001:00005FAC       SysUtils..EDivByZero
 0001:00006004       SysUtils..ERangeError
 0001:0000605C       SysUtils..EIntOverflow
 0001:000060B8       SysUtils..EMathError
 0001:00006110       SysUtils..EInvalidOp
 0001:00006168       SysUtils..EZeroDivide
 0001:000061C0       SysUtils..EOverflow
 0001:00006218       SysUtils..EUnderflow
 0001:00006270       SysUtils..EInvalidPointer
 0001:000062CC       SysUtils..EInvalidCast
 0001:00006328       SysUtils..EConvertError
 0001:00006384       SysUtils..EAccessViolation
 0001:000063E4       SysUtils..EPrivilege
 0001:0000643C       SysUtils..EStackOverflow
 0001:00006498       SysUtils..EControlC
 0001:000064F0       SysUtils..EVariantError
 0001:0000654C       SysUtils..EAssertionFailed
 0001:000065AC       SysUtils..EAbstractError
 0001:00006608       SysUtils..EIntfCastError
 0001:00006664       SysUtils..EOSError
 0001:000066BC       SysUtils..ESafecallException
 0001:00006880       SysUtils..TThreadLocalCounter
 0001:0000695C       SysUtils..TMultiReadExclusiveWriteSynchronizer
 0001:000069D0       SysUtils.DivMod
 0001:000069EC       SysUtils.ConvertError
 0001:00006A04       SysUtils.ConvertErrorFmt
 0001:00006A28       SysUtils.UpperCase
 0001:00006AB0       SysUtils.LowerCase
 0001:00006B38       SysUtils.CompareStr
 0001:00006BA0       SysUtils.CompareText
 0001:00006C3C       SysUtils.SameText
 0001:00006C60       SysUtils.AnsiUpperCase
 0001:00006C98       SysUtils.AnsiCompareText
 0001:00006CDC       SysUtils.Trim
 0001:00006D30       SysUtils.TrimRight
 0001:00006D68       SysUtils.QuotedStr
 0001:00006DD4       SysUtils.AnsiExtractQuotedStr
 0001:00006EDC       SysUtils.CvtInt
 0001:00006F28       SysUtils.IntToStr
 0001:00006F48       SysUtils.CvtInt64
 0001:00007014       SysUtils.IntToStr
 0001:0000703C       SysUtils.IntToHex
 0001:00007064       SysUtils.StrToInt
 0001:000070A0       SysUtils.StrToIntDef
 0001:000070B8       SysUtils.TryStrToInt
 0001:000070D8       SysUtils.VerifyBoolStrArray
 0001:00007168       SysUtils.CompareWith
 0001:000071EC       SysUtils.TryStrToBool
 0001:00007288       SysUtils.BoolToStr
 0001:000072D4       SysUtils.FileOpen
 0001:0000732C       SysUtils.FileRead
 0001:00007358       SysUtils.FileWrite
 0001:00007384       SysUtils.FileSeek
 0001:000073D4       SysUtils.ExistsLockedOrShared
 0001:00007414       SysUtils.FileExists
 0001:0000745C       SysUtils.DirectoryExists
 0001:00007480       SysUtils.ForceDirectories
 0001:00007578       SysUtils.FindMatchingFile
 0001:000075FC       SysUtils.FindFirst
 0001:0000764C       SysUtils.FindNext
 0001:00007670       SysUtils.FindClose
 0001:0000768C       SysUtils.LastDelimiter
 0001:000076E0       SysUtils.ChangeFileExt
 0001:00007774       SysUtils.ExtractFilePath
 0001:000077A8       SysUtils.ExtractFileName
 0001:000077E0       SysUtils.ExpandFileName
 0001:0000781C       SysUtils.BackfillGetDiskFreeSpaceEx
 0001:00007890       SysUtils.CreateDir
 0001:000078AC       SysUtils.StrLen
 0001:000078DC       SysUtils.StrEnd
 0001:000078F0       SysUtils.StrMove
 0001:00007900       SysUtils.StrLCopy
 0001:00007934       SysUtils.StrLIComp
 0001:00007978       SysUtils.StrScan
 0001:0000798C       SysUtils.StrPos
 0001:000079E0       SysUtils.StrPas
 0001:000079F4       SysUtils.StrAlloc
 0001:00007A08       SysUtils.StrNew
 0001:00007A34       SysUtils.FormatError
 0001:00007A8C       SysUtils.FormatVarToStr
 0001:00007AB0       SysUtils.FormatClearStr
 0001:00007ABC       SysUtils.FormatBuf
 0001:00007E34       SysUtils.StrLFmt
 0001:00007E74       SysUtils.Format
 0001:00007E88       SysUtils.FmtStr
 0001:00007F64       SysUtils.PutExponent
 0001:00007FA8       SysUtils.FloatToText
 0001:0000827C       SysUtils.FloatToDecimal
 0001:000084A8       SysUtils.TextToFloat
 0001:000085BC       SysUtils.FloatToStr
 0001:000085EC       SysUtils.CurrToStr
 0001:0000861C       SysUtils.StrToFloat
 0001:00008658       SysUtils.TryStrToFloat
 0001:00008674       SysUtils.TryStrToFloat
 0001:000086A0       SysUtils.TryStrToFloat
 0001:000086CC       SysUtils.TryStrToCurr
 0001:000086E8       SysUtils.DateTimeToTimeStamp
 0001:0000872C       SysUtils.TryEncodeTime
 0001:0000879C       SysUtils.EncodeTime
 0001:000087DC       SysUtils.DecodeTime
 0001:00008838       SysUtils.IsLeapYear
 0001:00008874       SysUtils.TryEncodeDate
 0001:00008940       SysUtils.EncodeDate
 0001:00008970       SysUtils.DecodeDateFully
 0001:00008ABC       SysUtils.DecodeDate
 0001:00008ADC       SysUtils.SystemTimeToDateTime
 0001:00008B4C       SysUtils.DayOfWeek
 0001:00008B74       SysUtils.CurrentYear
 0001:00008B88       SysUtils.AppendChars
 0001:00008BCC       SysUtils.AppendString
 0001:00008BE8       SysUtils.AppendNumber
 0001:00008C34       SysUtils.GetCount
 0001:00008C60       SysUtils.GetDate
 0001:00008C98       SysUtils.GetTime
 0001:00008CD8       SysUtils.ConvertEraString
 0001:00008E54       SysUtils.ConvertYearString
 0001:00008F6C       SysUtils.AppendFormat
 0001:00009724       SysUtils.DateTimeToString
 0001:00009780       SysUtils.AppendChars
 0001:000097C4       SysUtils.AppendString
 0001:000097E0       SysUtils.AppendNumber
 0001:0000982C       SysUtils.GetCount
 0001:00009858       SysUtils.GetDate
 0001:00009890       SysUtils.GetTime
 0001:000098D0       SysUtils.ConvertEraString
 0001:00009A4C       SysUtils.ConvertYearString
 0001:00009B64       SysUtils.AppendFormat
 0001:0000A39C       SysUtils.DateTimeToString
 0001:0000A3FC       SysUtils.FormatDateTime
 0001:0000A418       SysUtils.ScanBlanks
 0001:0000A43C       SysUtils.ScanNumber
 0001:0000A4D0       SysUtils.ScanString
 0001:0000A5A8       SysUtils.ScanChar
 0001:0000A5E4       SysUtils.GetDateOrder
 0001:0000A630       SysUtils.ScanToNumber
 0001:0000A678       SysUtils.GetEraYearOffset
 0001:0000A6CC       SysUtils.EraToYear
 0001:0000A728       SysUtils.ScanDate
 0001:0000AA74       SysUtils.ScanTime
 0001:0000AC6C       SysUtils.StrToDate
 0001:0000ACA0       SysUtils.TryStrToDate
 0001:0000ACD8       SysUtils.StrToTime
 0001:0000AD0C       SysUtils.TryStrToTime
 0001:0000AD44       SysUtils.StrToDateTime
 0001:0000AD78       SysUtils.TryStrToDateTime
 0001:0000AE14       SysUtils.SysErrorMessage
 0001:0000AE60       SysUtils.GetLocaleStr
 0001:0000AEAC       SysUtils.GetLocaleChar
 0001:0000AED8       SysUtils.LocalGetLocaleStr
 0001:0000AF14       SysUtils.GetMonthDayNames
 0001:0000B038       SysUtils.LocalGetLocaleStr
 0001:0000B074       SysUtils.GetLocaleMonthDayNames
 0001:0000B184       SysUtils.EnumEraNames
 0001:0000B1C0       SysUtils.EnumEraYearOffsets
 0001:0000B238       SysUtils.GetEraNamesAndYearOffsets
 0001:0000B2E8       SysUtils.TranslateDateFormat
 0001:0000B518       SysUtils.ConvertAddr
 0001:0000B524       SysUtils.ExceptionErrorMessage
 0001:0000B6AC       SysUtils.ShowException
 0001:0000B774       SysUtils.ReturnAddr
 0001:0000B778       SysUtils.Abort
 0001:0000B798       SysUtils.Exception.Create
 0001:0000B7D4       SysUtils.Exception.CreateFmt
 0001:0000B854       SysUtils.Exception.CreateRes
 0001:0000B890       SysUtils.Exception.CreateResFmt
 0001:0000B924       SysUtils.EHeapException.FreeInstance
 0001:0000B950       SysUtils.CreateInOutError
 0001:0000B9D0       SysUtils.ErrorHandler
 0001:0000BA20       SysUtils.CreateAssertException
 0001:0000BACC       SysUtils.RaiseAssertException
 0001:0000BADC       SysUtils.AssertErrorHandler
 0001:0000BAF8       SysUtils.AbstractErrorHandler
 0001:0000BB10       SysUtils.MapException
 0001:0000BB90       SysUtils.GetExceptionClass
 0001:0000BBA8       SysUtils.CreateAVObject
 0001:0000BD74       SysUtils.GetExceptionObject
 0001:0000BE3C       SysUtils.ExceptHandler
 0001:0000BE4C       SysUtils.InitExceptions
 0001:0000BED0       SysUtils.DoneExceptions
 0001:0000BF7C       SysUtils.InitPlatformId
 0001:0000BFEC       SysUtils.ByteTypeTest
 0001:0000C060       SysUtils.ByteType
 0001:0000C084       SysUtils.StrByteType
 0001:0000C09C       SysUtils.ByteToCharLen
 0001:0000C0C0       SysUtils.ByteToCharIndex
 0001:0000C128       SysUtils.CountChars
 0001:0000C1B8       SysUtils.CharToByteIndex
 0001:0000C23C       SysUtils.CharToByteLen
 0001:0000C2AC       SysUtils.StrCharLength
 0001:0000C2CC       SysUtils.StrNextChar
 0001:0000C2D4       SysUtils.CharLength
 0001:0000C30C       SysUtils.NextCharIndex
 0001:0000C344       SysUtils.IsPathDelimiter
 0001:0000C38C       SysUtils.IncludeTrailingPathDelimiter
 0001:0000C3D8       SysUtils.ExcludeTrailingPathDelimiter
 0001:0000C428       SysUtils.AnsiPos
 0001:0000C460       SysUtils.AnsiStrPos
 0001:0000C500       SysUtils.AnsiStrRScan
 0001:0000C534       SysUtils.AnsiStrScan
 0001:0000C574       SysUtils.InitLeadBytes
 0001:0000C5D0       SysUtils.InitSysLocale
 0001:0000C694       SysUtils.GetFormatSettings
 0001:0000CA0C       SysUtils.GetLocaleFormatSettings
 0001:0000CD70       SysUtils.StringReplace
 0001:0000CF20       SysUtils.HashName
 0001:0000CF48       SysUtils.ModuleUnloaded
 0001:0000D060       SysUtils.GetModuleName
 0001:0000D090       SysUtils.Sleep
 0001:0000D098       SysUtils.RaiseLastOSError
 0001:0000D0A4       SysUtils.RaiseLastOSError
 0001:0000D13C       SysUtils.Win32Check
 0001:0000D14C       SysUtils.FreeTerminateProcs
 0001:0000D170       SysUtils.InitDriveSpacePtr
 0001:0000D1CC       SysUtils.InterlockedIncrement
 0001:0000D1D8       SysUtils.InterlockedDecrement
 0001:0000D1E4       SysUtils.InterlockedExchange
 0001:0000D1EC       SysUtils.InterlockedExchangeAdd
 0001:0000D1F4       SysUtils.TThreadLocalCounter.Destroy
 0001:0000D24C       SysUtils.TThreadLocalCounter.HashIndex
 0001:0000D268       SysUtils.TThreadLocalCounter.Open
 0001:0000D2E0       SysUtils.TThreadLocalCounter.Delete
 0001:0000D2F0       SysUtils.TThreadLocalCounter.Recycle
 0001:0000D334       SysUtils.TMultiReadExclusiveWriteSynchronizer.Create
 0001:0000D3A8       SysUtils.TMultiReadExclusiveWriteSynchronizer.Destroy
 0001:0000D3F0       SysUtils.TMultiReadExclusiveWriteSynchronizer.BlockReaders
 0001:0000D3FC       SysUtils.TMultiReadExclusiveWriteSynchronizer.UnblockReaders
 0001:0000D408       SysUtils.TMultiReadExclusiveWriteSynchronizer.UnblockOneWriter
 0001:0000D414       SysUtils.TMultiReadExclusiveWriteSynchronizer.WaitForReadSignal
 0001:0000D424       SysUtils.TMultiReadExclusiveWriteSynchronizer.WaitForWriteSignal
 0001:0000D434       SysUtils.TMultiReadExclusiveWriteSynchronizer.BeginWrite
 0001:0000D4E0       SysUtils.TMultiReadExclusiveWriteSynchronizer.EndWrite
 0001:0000D530       SysUtils.TMultiReadExclusiveWriteSynchronizer.BeginRead
 0001:0000D5A0       SysUtils.TMultiReadExclusiveWriteSynchronizer.EndRead
 0001:0000D608       SysUtils.FreeAndNil
 0001:0000D618       SysUtils.ClearHashTables
 0001:0000D918       SysUtils.Finalization
 0001:0000DAA8       ActiveX.SysAllocString
 0001:0000DAB0       VarUtils.VariantInit
 0001:0000DAB8       VarUtils.VariantClear
 0001:0000DAC0       VarUtils.VariantCopy
 0001:0000DAC8       VarUtils.VariantChangeType
 0001:0000DAD0       VarUtils.BackupVariantChangeTypeEx
 0001:0000DB00       VarUtils.UniUnimplemented
 0001:0000DB0C       VarUtils.BiUnimplemented
 0001:0000DB18       VarUtils.CmpUnimplemented
 0001:0000DB24       VarUtils.BackupVarI4FromStr
 0001:0000DB90       VarUtils.BackupVarR4FromStr
 0001:0000DBFC       VarUtils.BackupVarR8FromStr
 0001:0000DC68       VarUtils.BackupVarDateFromStr
 0001:0000DCD4       VarUtils.BackupVarCyFromStr
 0001:0000DD40       VarUtils.BackupVarBoolFromStr
 0001:0000DDC0       VarUtils.BackupVarBStrFromCy
 0001:0000DE30       VarUtils.BackupVarBStrFromDate
 0001:0000DEA4       VarUtils.BackupVarBStrFromBool
 0001:0000DF18       VarUtils.SafeArrayCreate
 0001:0000DF20       VarUtils.SafeArrayGetLBound
 0001:0000DF28       VarUtils.SafeArrayGetUBound
 0001:0000DF30       VarUtils.SafeArrayPtrOfIndex
 0001:0000DF38       VarUtils.FindProc
 0001:0000DF64       VarUtils.InitializeVarUtils
 0001:0000E270       VarUtils.Finalization
 0001:0000E2F0       Variants..TCustomVariantType
 0001:0000E3BC       Variants..EVariantInvalidOpError
 0001:0000E420       Variants..EVariantTypeCastError
 0001:0000E484       Variants..EVariantOverflowError
 0001:0000E4E8       Variants..EVariantInvalidArgError
 0001:0000E54C       Variants..EVariantBadVarTypeError
 0001:0000E5B0       Variants..EVariantBadIndexError
 0001:0000E614       Variants..EVariantArrayLockedError
 0001:0000E67C       Variants..EVariantArrayCreateError
 0001:0000E6E4       Variants..EVariantNotImplError
 0001:0000E748       Variants..EVariantOutOfMemoryError
 0001:0000E7B0       Variants..EVariantUnexpectedError
 0001:0000E814       Variants..EVariantDispatchError
 0001:0000E878       Variants.VarCastError
 0001:0000E8CC       Variants.VarCastError
 0001:0000E968       Variants.VarInvalidOp
 0001:0000E9BC       Variants.VarOverflowError
 0001:0000EA58       Variants.VarArrayCreateError
 0001:0000EAAC       Variants.TranslateResult
 0001:0000ED00       Variants.VarResultCheck
 0001:0000ED0C       Variants.VarResultCheck
 0001:0000ED40       Variants.HandleConversionException
 0001:0000EDC4       Variants.@DispInvokeError
 0001:0000EE18       Variants.InBounds
 0001:0000EE48       Variants.Increment
 0001:0000EEA4       Variants.VarArrayClear
 0001:0000F020       Variants.VarClearDeep
 0001:0000F09C       Variants.@VarClear
 0001:0000F0B0       Variants.@VarClr
 0001:0000F0B8       Variants.InBounds
 0001:0000F0E8       Variants.Increment
 0001:0000F144       Variants.VarArrayCopyForEach
 0001:0000F310       Variants.VarCopyCopyProc
 0001:0000F318       Variants.VarCopyDeep
 0001:0000F3C4       Variants.@VarCopy
 0001:0000F408       Variants.VarToIntAsString
 0001:0000F4BC       Variants.VarToIntViaOS
 0001:0000F4F8       Variants.VarToIntAny
 0001:0000F55C       Variants.VarToIntCustom
 0001:0000F5A0       Variants.@VarToInteger
 0001:0000F9F0       Variants.VarToBoolAsString
 0001:0000FAB4       Variants.VarToBoolViaOS
 0001:0000FAF4       Variants.VarToBoolAny
 0001:0000FB58       Variants.VarToBoolCustom
 0001:0000FBA4       Variants.@VarToBoolean
 0001:0000FEF8       Variants.@VarToBool
 0001:0000FF04       Variants.CurrToWStrViaOS
 0001:0000FF3C       Variants.DateToWStrViaOS
 0001:0000FF74       Variants.BoolToWStrViaOS
 0001:0001003C       Variants.VarToLStrViaOS
 0001:00010108       Variants.VarToLStrAny
 0001:0001016C       Variants.VarToLStrCustom
 0001:000101F4       Variants.@VarToLStr
 0001:00010730       Variants.VarToWStrViaOS
 0001:000107E8       Variants.VarToWStrAny
 0001:0001084C       Variants.VarToWStrCustom
 0001:00010914       Variants.@VarToWStr
 0001:00010E68       Variants.@VarFromBool
 0001:00010E90       Variants.@VarFromWStr
 0001:00010EC8       Variants.@VarAddRef
 0001:0001104C       Variants.VarTypeAsText
 0001:000111BC       Variants.SetVarAsError
 0001:000111D4       Variants.SetClearVarToEmptyParam
 0001:00011204       Variants.ClearVariantTypeList
 0001:00011270       Variants.TCustomVariantType.BinaryOp
 0001:0001127C       Variants.TCustomVariantType.Cast
 0001:000112B4       Variants.TCustomVariantType.CastTo
 0001:000112FC       Variants.TCustomVariantType.Compare
 0001:00011308       Variants.TCustomVariantType.CompareOp
 0001:00011340       Variants.TCustomVariantType.CastToOle
 0001:0001137C       Variants.TCustomVariantType.Destroy
 0001:00011408       Variants.TCustomVariantType.IsClear
 0001:0001140C       Variants.TCustomVariantType.LeftPromotion
 0001:00011420       Variants.TCustomVariantType.OlePromotion
 0001:00011428       Variants.TCustomVariantType.RaiseCastError
 0001:00011430       Variants.TCustomVariantType.RaiseInvalidOp
 0001:00011438       Variants.TCustomVariantType.RaiseDispError
 0001:00011440       Variants.TCustomVariantType.RightPromotion
 0001:00011454       Variants.TCustomVariantType.UnaryOp
 0001:0001145C       Variants.TCustomVariantType.DispInvoke
 0001:00011468       Variants.TCustomVariantType._AddRef
 0001:00011474       Variants.TCustomVariantType._Release
 0001:00011480       Variants.TCustomVariantType.QueryInterface
 0001:000114A8       Variants.FindCustomVariantType
 0001:00011564       Variants.Finalization
 0001:00011678       TypInfo.Finalization
 0001:000116C8       Classes..EStreamError
 0001:00011724       Classes..EFileStreamError
 0001:00011784       Classes..EFCreateError
 0001:000117E0       Classes..EFOpenError
 0001:00011838       Classes..EFilerError
 0001:00011890       Classes..EReadError
 0001:000118E8       Classes..EWriteError
 0001:00011940       Classes..EListError
 0001:00011998       Classes..EStringListError
 0001:000119F8       Classes..TList
 0001:00011A5C       Classes..TThreadList
 0001:00011AB4       Classes..TPersistent
 0001:00011B88       Classes..TStrings
 0001:00011CC0       Classes..TStringList
 0001:00011DD8       Classes..TStream
 0001:00011E48       Classes..THandleStream
 0001:00011EC0       Classes..TFileStream
 0001:00011F48       Classes..TCustomMemoryStream
 0001:00011FC4       Classes..TMemoryStream
 0001:00012040       Classes..TRegGroup
 0001:00012098       Classes..TRegGroups
 0001:000120F0       Classes.TRegGroup.Create
 0001:0001214C       Classes.TRegGroup.Destroy
 0001:0001218C       Classes.PointerInModule
 0001:000121AC       Classes.TRegGroup.UnregisterModuleClasses
 0001:00012258       Classes.TRegGroups.Create
 0001:000122CC       Classes.TRegGroups.Destroy
 0001:0001232C       Classes.TRegGroups.Lock
 0001:00012338       Classes.TRegGroups.Unlock
 0001:00012344       Classes.TRegGroups.UnregisterModuleClasses
 0001:00012394       Classes.UnRegisterModuleClasses
 0001:000123E0       Classes.TList.Destroy
 0001:00012400       Classes.TList.Add
 0001:00012434       Classes.TList.Clear
 0001:0001244C       Classes.TList.Delete
 0001:000124A8       Classes.ReturnAddr
 0001:000124AC       Classes.TList.Error
 0001:000124E4       Classes.TList.Error
 0001:00012538       Classes.TList.Get
 0001:00012560       Classes.TList.Grow
 0001:00012594       Classes.TList.IndexOf
 0001:000125B4       Classes.TList.SetCapacity
 0001:000125F0       Classes.TList.SetCount
 0001:00012664       Classes.TList.Extract
 0001:000126A0       Classes.TList.Notify
 0001:000126A4       Classes.TThreadList.Create
 0001:000126F8       Classes.TThreadList.Destroy
 0001:00012774       Classes.TThreadList.LockList
 0001:00012788       Classes.TThreadList.UnlockList
 0001:00012794       Classes.TPersistent.Destroy
 0001:000127C0       Classes.TPersistent.Assign
 0001:000127D4       Classes.TPersistent.AssignError
 0001:000128A4       Classes.TPersistent.AssignTo
 0001:000128AC       Classes.TPersistent.DefineProperties
 0001:000128B0       Classes.TPersistent.GetNamePath
 0001:00012960       Classes.TPersistent.GetOwner
 0001:00012964       Classes.TStrings.Destroy
 0001:00012994       Classes.TStrings.Add
 0001:000129B8       Classes.TStrings.AddObject
 0001:000129DC       Classes.TStrings.AddStrings
 0001:00012A94       Classes.TStrings.Assign
 0001:00012B4C       Classes.TStrings.BeginUpdate
 0001:00012B64       Classes.DoWrite
 0001:00012BBC       Classes.TStrings.DefineProperties
 0001:00012C08       Classes.TStrings.EndUpdate
 0001:00012C1C       Classes.TStrings.Equals
 0001:00012CC4       Classes.ReturnAddr
 0001:00012CC8       Classes.TStrings.Error
 0001:00012D00       Classes.TStrings.Error
 0001:00012D58       Classes.TStrings.Exchange
 0001:00012E44       Classes.TStrings.ExtractName
 0001:00012EC0       Classes.TStrings.GetCapacity
 0001:00012EC8       Classes.TStrings.GetName
 0001:00012F28       Classes.TStrings.GetObject
 0001:00012F2C       Classes.TStrings.GetText
 0001:00012F80       Classes.TStrings.GetTextStr
 0001:000130B8       Classes.TStrings.GetValue
 0001:00013144       Classes.TStrings.IndexOf
 0001:000131D0       Classes.TStrings.IndexOfName
 0001:000132A4       Classes.TStrings.IndexOfObject
 0001:000132D8       Classes.TStrings.InsertObject
 0001:00013308       Classes.TStrings.LoadFromFile
 0001:0001335C       Classes.TStrings.LoadFromStream
 0001:00013408       Classes.TStrings.Move
 0001:000134B8       Classes.TStrings.Put
 0001:000134E8       Classes.TStrings.PutObject
 0001:000134EC       Classes.TStrings.ReadData
 0001:0001359C       Classes.TStrings.SaveToFile
 0001:000135F4       Classes.TStrings.SaveToStream
 0001:00013654       Classes.TStrings.SetCapacity
 0001:00013658       Classes.TStrings.SetStringsAdapter
 0001:0001368C       Classes.TStrings.SetText
 0001:000136DC       Classes.TStrings.SetTextStr
 0001:00013880       Classes.TStrings.SetUpdateState
 0001:00013884       Classes.TStrings.SetValue
 0001:00013938       Classes.TStrings.WriteData
 0001:000139BC       Classes.TStrings.SetDelimitedText
 0001:00013B58       Classes.TStrings.GetDelimiter
 0001:00013B70       Classes.TStrings.GetLineBreak
 0001:00013BA4       Classes.TStrings.GetQuoteChar
 0001:00013BBC       Classes.TStrings.GetStrictDelimiter
 0001:00013BD4       Classes.TStrings.SetDelimiter
 0001:00013BF0       Classes.TStrings.SetLineBreak
 0001:00013C1C       Classes.TStrings.SetQuoteChar
 0001:00013C38       Classes.TStrings.SetStrictDelimiter
 0001:00013C54       Classes.TStrings.CompareStrings
 0001:00013C98       Classes.TStrings.GetNameValueSeparator
 0001:00013CB0       Classes.TStrings.SetNameValueSeparator
 0001:00013CCC       Classes.TStrings.GetValueFromIndex
 0001:00013D6C       Classes.TStringList.Destroy
 0001:00013DC8       Classes.TStringList.Add
 0001:00013DD8       Classes.TStringList.AddObject
 0001:00013E3C       Classes.TStringList.Changed
 0001:00013E58       Classes.TStringList.Changing
 0001:00013E74       Classes.TStringList.Clear
 0001:00013EB4       Classes.TStringList.Delete
 0001:00013F20       Classes.TStringList.Exchange
 0001:00013F7C       Classes.TStringList.ExchangeItems
 0001:00013FA0       Classes.TStringList.Find
 0001:00014024       Classes.TStringList.Get
 0001:00014058       Classes.TStringList.GetCapacity
 0001:0001405C       Classes.TStringList.GetCount
 0001:00014060       Classes.TStringList.GetObject
 0001:00014088       Classes.TStringList.Grow
 0001:000140BC       Classes.TStringList.IndexOf
 0001:000140F8       Classes.TStringList.Insert
 0001:00014108       Classes.TStringList.InsertObject
 0001:0001415C       Classes.TStringList.InsertItem
 0001:000141D8       Classes.TStringList.Put
 0001:00014234       Classes.TStringList.PutObject
 0001:00014274       Classes.TStringList.QuickSort
 0001:00014308       Classes.TStringList.SetCapacity
 0001:00014324       Classes.TStringList.SetUpdateState
 0001:0001433C       Classes.StringListCompareStrings
 0001:0001435C       Classes.TStringList.Sort
 0001:0001436C       Classes.TStringList.CustomSort
 0001:000143A4       Classes.TStringList.CompareStrings
 0001:00014428       Classes.TStream.GetPosition
 0001:00014448       Classes.TStream.SetPosition
 0001:0001445C       Classes.TStream.GetSize
 0001:000144A8       Classes.TStream.SetSize
 0001:000144AC       Classes.TStream.SetSize64
 0001:000144C0       Classes.TStream.SetSize
 0001:00014514       Classes.RaiseException
 0001:00014560       Classes.TStream.Seek
 0001:000145E4       Classes.TStream.Seek
 0001:00014654       Classes.TStream.ReadBuffer
 0001:0001468C       Classes.TStream.WriteBuffer
 0001:000146C4       Classes.TStream.CopyFrom
 0001:000147B8       Classes.THandleStream.Create
 0001:000147F4       Classes.THandleStream.Read
 0001:00014804       Classes.THandleStream.Write
 0001:00014814       Classes.THandleStream.Seek
 0001:00014840       Classes.THandleStream.SetSize
 0001:00014854       Classes.THandleStream.SetSize
 0001:0001487C       Classes.TFileStream.Create
 0001:000148C0       Classes.TFileStream.Create
 0001:00014A34       Classes.TFileStream.Destroy
 0001:00014A68       Classes.TCustomMemoryStream.SetPointer
 0001:00014A70       Classes.TCustomMemoryStream.Read
 0001:00014AA8       Classes.TCustomMemoryStream.Seek
 0001:00014ACC       Classes.TMemoryStream.Destroy
 0001:00014AF8       Classes.TMemoryStream.Clear
 0001:00014B10       Classes.TMemoryStream.SetCapacity
 0001:00014B38       Classes.TMemoryStream.SetSize
 0001:00014B64       Classes.TMemoryStream.Realloc
 0001:00014BE4       Classes.TMemoryStream.Write
 0001:00014C34       Classes.RemoveFixupReferences
 0001:00014CE0       Classes.RemoveFixups
 0001:00014D64       Classes.ReadError
 0001:00014D7C       Classes.PropValueError
 0001:00014D88       Classes.TReader.CheckValue
 0001:00014DAC       Classes.TReader.EndOfList
 0001:00014DC0       Classes.TReader.NextValue
 0001:00014DD0       Classes.TReader.Read
 0001:00014E1C       Classes.TReader.ReadBuffer
 0001:00014E58       Classes.TReader.ReadListBegin
 0001:00014E60       Classes.TReader.ReadListEnd
 0001:00014E68       Classes.TReader.ReadStr
 0001:00014EA4       Classes.TReader.ReadString
 0001:00014F60       Classes.TReader.ReadWideString
 0001:00015044       Classes.TReader.ReadValue
 0001:00015058       Classes.TReader.SkipSetBody
 0001:000150A0       Classes.SkipList
 0001:000150C8       Classes.SkipBinary
 0001:000150F8       Classes.SkipCollection
 0001:00015154       Classes.TReader.SkipValue
 0001:00015304       Classes.TReader.SkipProperty
 0001:0001534C       Classes.TReader.SkipBytes
 0001:00015394       Classes.TWriter.Write
 0001:000153E0       Classes.TWriter.WriteBuffer
 0001:000153F8       Classes.TWriter.WriteListBegin
 0001:00015400       Classes.TWriter.WriteListEnd
 0001:00015408       Classes.TWriter.WriteMinStr
 0001:000154B4       Classes.TWriter.WriteString
 0001:00015508       Classes.TWriter.WriteValue
 0001:0001551C       Classes.BinToHex
 0001:00015558       Classes.HexToBin
 0001:000155B0       Classes.InitThreadSynchronization
 0001:000155E4       Classes.DoneThreadSynchronization
 0001:000155FC       Classes.FreeIntConstList
 0001:00015668       Classes.ModuleUnload
 0001:00015670       Classes.Finalization
 0001:00016468       t_SQL_types.GetEngineTypeByODBCDescription
 0001:000166D8       t_SQL_types.GetEngineTypeUsingSQL_Version_Upper
 0001:000167B4       t_SQL_types.GetEngineTypeUsingSelectVersionException
 0001:000167B8       t_SQL_types.GetEngineTypeUsingSelectFromDualException
 0001:000167BC       t_SQL_types.OdbcEceptionStartsWith
 0001:0001680C       t_SQL_types.StandardExceptionType
 0001:00016860       t_SQL_types.Finalization
 0001:00016AA4       t_ETS_Path.TETS_Path_Divided_W.ApplyFrom
 0001:00016C2C       t_ETS_Path.TETS_Path_Divided_W.AsEndpoint
 0001:00016C6C       t_ETS_Path.TETS_Path_Divided_W.Clear
 0001:00016C8C       t_ETS_Path.TETS_Path_Divided_W.CopyFrom
 0001:00016CC8       t_ETS_Path.TETS_Path_DelimPos.Get3Parts
 0001:00016D88       t_DBMS_version..TVersionList
 0001:00016DF4       t_DBMS_version.TVersionList.AddItem
 0001:00016EE8       t_DBMS_version.TVersionList.Clear
 0001:00016F24       t_DBMS_version.TVersionList.Create
 0001:00016F64       t_DBMS_version.TVersionList.Destroy
 0001:00016F94       t_DBMS_version.TVersionList.FindItemByAnsiValue
 0001:00017010       t_DBMS_version.TVersionList.FindItemByAnsiValueInternal
 0001:00017084       t_DBMS_version.TVersionList.FindItemByIdVer
 0001:00017144       t_DBMS_version.TVersionList.FindItemByIdVerInternal
 0001:000171AC       t_DBMS_version.TVersionList.FindItemByVersion
 0001:00017220       t_DBMS_version.TVersionList.FindItemByWideValue
 0001:000172B0       t_DBMS_version.TVersionList.GetItemByIndex
 0001:000172D4       t_DBMS_version.TVersionAA.Clear
 0001:00017350       t_DBMS_contenttype..TContentTypeList
 0001:000173C0       t_DBMS_contenttype.TContentTypeList.AddItem
 0001:00017434       t_DBMS_contenttype.TContentTypeList.Clear
 0001:00017470       t_DBMS_contenttype.TContentTypeList.Create
 0001:000174B0       t_DBMS_contenttype.TContentTypeList.Destroy
 0001:000174E0       t_DBMS_contenttype.TContentTypeList.FindItemByAnsiContentTypeText
 0001:00017554       t_DBMS_contenttype.TContentTypeList.FindItemByAnsiValueInternal
 0001:000175B4       t_DBMS_contenttype.TContentTypeList.FindItemByIdContentType
 0001:0001766C       t_DBMS_contenttype.TContentTypeList.FindItemByWideContentTypeText
 0001:000176F8       t_DBMS_contenttype.TContentTypeList.SetCapacity
 0001:00017728       t_DBMS_service.TDBMS_Service_Info.CalcBackToTilePos
 0001:00017768       t_DBMS_service.TDBMS_Service_Info.XYMaskWidth
 0001:000177E4       t_DBMS_Template.TSQLTile.HXToTableNameChar
 0001:0001784C       t_DBMS_Template.TSQLTile.HXYToTableNamePos
 0001:00017870       t_DBMS_Template.TSQLTile.HYToTableNameChar
 0001:000178D8       t_DBMS_Template.TSQLTile.ZoomToTableNameChar
 0001:00017904       odbcsql.SQLAllocHandle
 0001:0001790C       odbcsql.SQLSetEnvAttr
 0001:00017914       odbcsql.SQLFreeHandle
 0001:0001791C       odbcsql.SQLGetDiagRecA
 0001:00017924       odbcsql.SQLConnectA
 0001:0001792C       odbcsql.SQLDisconnect
 0001:00017934       odbcsql.SQLDriverConnectA
 0001:0001793C       odbcsql.SQLExecDirectA
 0001:00017944       odbcsql.SQLCloseCursor
 0001:0001794C       odbcsql.SQLFetch
 0001:00017954       odbcsql.SQLNumResultCols
 0001:0001795C       odbcsql.SQLDescribeColA
 0001:00017964       odbcsql.SQLGetData
 0001:0001796C       odbcsql.SQLGetInfoA
 0001:00017974       odbcsql.SQLBindCol
 0001:0001797C       odbcsql.SQLDataSourcesA
 0001:00017984       odbcsql.SQLBindParameter
 0001:0001798C       odbcsql.SQLFreeStmt
 0001:00017994       odbcsql.SQL_SUCCEEDED
 0001:000179E8       t_ODBC_Exception..EODBCException
 0001:00017A44       t_ODBC_Exception..EODBCConnectionError
 0001:00017AA8       t_ODBC_Exception..EODBCEnvironmentError
 0001:00017B0C       t_ODBC_Exception..EODBCStatementError
 0001:00017B6C       t_ODBC_Exception..EODBCOpenFetchError
 0001:00017BCC       t_ODBC_Exception..EODBCFetchStmtError
 0001:00017C2C       t_ODBC_Exception..EODBCDirectExecError
 0001:00017C90       t_ODBC_Exception..EODBCDirectExecBlobError
 0001:00017CF8       t_ODBC_Exception..EODBCNumResultColsError
 0001:00017D5C       t_ODBC_Exception..EODBCDescribeColError
 0001:00017DC0       t_ODBC_Exception..EODBCBindColError
 0001:00017E20       t_ODBC_Exception..EODBCGetDataLOBError
 0001:00017E84       t_ODBC_Exception..EODBCSimpleError
 0001:00017EE4       t_ODBC_Exception..EODBCConvertError
 0001:00017F44       t_ODBC_Exception..EODBCConvertFromDateError
 0001:00017FAC       t_ODBC_Exception..EODBCConvertFromTimeError
 0001:00018014       t_ODBC_Exception..EODBCConvertFromTimeStampError
 0001:00018080       t_ODBC_Exception..EODBCConvertDateTimeError
 0001:000180E8       t_ODBC_Exception..EODBCConvertLongintError
 0001:00018150       t_ODBC_Exception..EODBCConvertSmallintError
 0001:000181B8       t_ODBC_Exception..EODBCConvertLOBError
 0001:0001821C       t_ODBC_Exception..EODBCUnknownDataTypeError
 0001:00018284       t_ODBC_Exception..EODBCAllocateEnvironment
 0001:000182EC       t_ODBC_Exception.CheckStatementResult
 0001:0001831C       t_ODBC_Exception.tError
 0001:000184C0       t_ODBC_Exception.MakeODBCInfoMessage
 0001:0001866C       t_ODBC_Exception.EODBCException.CreateWithDiag
 0001:00018804       t_ODBC_Buffer.OdbcAlloc
 0001:0001881C       t_ODBC_Buffer.OdbcRealloc
 0001:00018848       t_ODBC_Buffer.OdbcFreeBuffer
 0001:0001886C       t_ODBC_Buffer.OdbcFreeColBuffer
 0001:000188A0       t_ODBC_Buffer.OdbcFetchStmt
 0001:000188F8       t_ODBC_Buffer.OdbcNumericToInt
 0001:00018950       t_ODBC_Buffer.OdbcTryEncodeTimeStamp
 0001:000189C8       t_ODBC_Buffer.TOdbcFetchCols.Close
 0001:00018A80       t_ODBC_Buffer.TOdbcFetchCols.Init
 0001:00018A9C       t_ODBC_Buffer.TOdbcFetchCols.InternalColData
 0001:00018AC4       t_ODBC_Buffer.TOdbcFetchCols.InternalFreeColNames
 0001:00018AF4       t_ODBC_Buffer.TOdbcFetchCols.InternalFreeLOBs
 0001:00018B48       t_ODBC_Buffer.TOdbcFetchCols.ColIndex
 0001:00018BCC       t_ODBC_Buffer.TOdbcFetchCols.ColToAnsiCharDef
 0001:00018C98       t_ODBC_Buffer.TOdbcFetchCols.ColToAnsiString
 0001:00018DC8       t_ODBC_Buffer.TOdbcFetchCols.ColToDateTime
 0001:00019154       t_ODBC_Buffer.TOdbcFetchCols.ColToLongInt
 0001:00019370       t_ODBC_Buffer.TOdbcFetchCols.ColToSmallInt
 0001:0001959C       t_ODBC_Buffer.TOdbcFetchCols.DescribeAndBind
 0001:00019A6C       t_ODBC_Buffer.TOdbcFetchCols.FetchLOBs
 0001:00019C20       t_ODBC_Buffer.TOdbcFetchCols.FetchRecord
 0001:00019C50       t_ODBC_Buffer.TOdbcFetchCols.GetLOBBuffer
 0001:00019D58       t_ODBC_Buffer.TOdbcFetchCols.GetOptionalAnsiChar
 0001:00019D8C       t_ODBC_Buffer.TOdbcFetchCols.GetOptionalLongInt
 0001:00019DBC       t_ODBC_Buffer.TOdbcFetchCols.GetOptionalSmallInt
 0001:00019DEC       t_ODBC_Buffer.TOdbcFetchCols.IsNull
 0001:00019E98       t_ODBC_Buffer.TOdbcFetchCols.WithColNames
 0001:00019EA0       t_ODBC_Buffer.TOdbcFetchCols.WithLOBs
 0001:00019EA8       t_ODBC_Buffer.TDescribeColData.IsLOB
 0001:00019F04       t_ODBC_Buffer.TDescribeColData.LOBDataType
 0001:00019F24       t_ODBC_Buffer.TOdbcFetchCols10.Init
 0001:00019F44       t_ODBC_Buffer.TOdbcFetchCols12.Init
 0001:00019F64       t_ODBC_Buffer.TOdbcFetchCols5.Init
 0001:00019F80       t_ODBC_Buffer.TOdbcFetchCols3.Init
 0001:00019F9C       t_ODBC_Buffer.TOdbcFetchCols2.Init
 0001:00019FB8       t_ODBC_Buffer.TOdbcFetchCols7.Init
 0001:00019FD4       u_Synchronizer..ESynchronizerNotAvailable
 0001:0001A0B4       u_Synchronizer..TSynchronizerFactory
 0001:0001A120       u_Synchronizer..TSynchronizerAbstract
 0001:0001A210       u_Synchronizer..TSynchronizerCS
 0001:0001A2F8       u_Synchronizer..TSynchronizerCSSC
 0001:0001A3E4       u_Synchronizer..TSynchronizerRes
 0001:0001A4D4       u_Synchronizer..TSynchronizerSRW
 0001:0001A534       u_Synchronizer.RaiseNotAvailable
 0001:0001A5A4       u_Synchronizer.MakeSyncSection
 0001:0001A5D4       u_Synchronizer.MakeSyncRW_Var
 0001:0001A648       u_Synchronizer.MakeSyncRW_Std
 0001:0001A6E4       u_Synchronizer.TSynchronizerCSSC.BeginRead
 0001:0001A6F4       u_Synchronizer.TSynchronizerCSSC.BeginWrite
 0001:0001A708       u_Synchronizer.TSynchronizerCSSC.Create
 0001:0001A7C4       u_Synchronizer.TSynchronizerCSSC.Destroy
 0001:0001A7FC       u_Synchronizer.TSynchronizerCSSC.EndRead
 0001:0001A80C       u_Synchronizer.TSynchronizerCSSC.EndWrite
 0001:0001A81C       u_Synchronizer.TSynchronizerCS.BeginRead
 0001:0001A82C       u_Synchronizer.TSynchronizerCS.BeginWrite
 0001:0001A840       u_Synchronizer.TSynchronizerCS.Create
 0001:0001A8EC       u_Synchronizer.TSynchronizerCS.Destroy
 0001:0001A924       u_Synchronizer.TSynchronizerCS.EndRead
 0001:0001A934       u_Synchronizer.TSynchronizerCS.EndWrite
 0001:0001A944       u_Synchronizer.TSynchronizerFactory.Create
 0001:0001A994       u_Synchronizer.TSynchronizerFactory.GetEventPairInitData
 0001:0001A998       u_Synchronizer.TSynchronizerFactory.GetSyncResInitData
 0001:0001A9A8       u_Synchronizer.TSynchronizerFactory.GetSyncSRWInitData
 0001:0001A9B8       u_Synchronizer.TSynchronizerFactory.InternalInitDLL
 0001:0001ABD8       u_Synchronizer.TSynchronizerRes.BeginRead
 0001:0001ABF0       u_Synchronizer.TSynchronizerRes.BeginWrite
 0001:0001AC10       u_Synchronizer.TSynchronizerRes.Create
 0001:0001ACDC       u_Synchronizer.TSynchronizerRes.Destroy
 0001:0001AD18       u_Synchronizer.TSynchronizerRes.EndRead
 0001:0001AD30       u_Synchronizer.TSynchronizerRes.EndWrite
 0001:0001AD48       u_Synchronizer.TSynchronizerSRW.BeginRead
 0001:0001AD60       u_Synchronizer.TSynchronizerSRW.BeginWrite
 0001:0001AD78       u_Synchronizer.TSynchronizerSRW.Create
 0001:0001AE4C       u_Synchronizer.TSynchronizerSRW.EndRead
 0001:0001AE64       u_Synchronizer.TSynchronizerSRW.EndWrite
 0001:0001AE7C       u_Synchronizer.Finalization
 0001:0001AEC0       u_StatementHandleCache..TStatementList
 0001:0001AFBC       u_StatementHandleCache..TStatementHandleNonCached
 0001:0001B0C4       u_StatementHandleCache..TStatementHandleCache
 0001:0001B14C       u_StatementHandleCache..TStatementFetchableCache
 0001:0001B1C8       u_StatementHandleCache.TStatementHandleCache.CleanupStatementToKeepInList
 0001:0001B1CC       u_StatementHandleCache.TStatementHandleCache.Create
 0001:0001B28C       u_StatementHandleCache.TStatementHandleCache.Destroy
 0001:0001B330       u_StatementHandleCache.TStatementHandleCache.DoOnNotify
 0001:0001B340       u_StatementHandleCache.TStatementHandleCache.FreeStatement
 0001:0001B3BC       u_StatementHandleCache.TStatementHandleCache.GetStatementHandle
 0001:0001B454       u_StatementHandleCache.TStatementHandleCache.GetStatistics
 0001:0001B4B8       u_StatementHandleCache.TStatementHandleCache.SyncStatements
 0001:0001B508       u_StatementHandleCache.TStatementList.ExtractLast
 0001:0001B554       u_StatementHandleCache.TStatementList.Notify
 0001:0001B57C       u_StatementHandleCache.TStatementHandleNonCached.Create
 0001:0001B5BC       u_StatementHandleCache.TStatementHandleNonCached.FreeStatement
 0001:0001B5CC       u_StatementHandleCache.TStatementHandleNonCached.GetStatementHandle
 0001:0001B5E0       u_StatementHandleCache.TStatementHandleNonCached.GetStatistics
 0001:0001B5EC       u_StatementHandleCache.TStatementHandleNonCached.SyncStatements
 0001:0001B5F0       u_StatementHandleCache.TStatementFetchableCache.CleanupStatementToKeepInList
 0001:0001B64C       t_ODBC_Connection.Load_DSN_Params_from_ODBC
 0001:0001B678       t_ODBC_Connection.TODBCConnection.CheckByteaAsLoOff
 0001:0001B7E0       t_ODBC_Connection.TODBCConnection.CheckDirectSQLSingleNotNull
 0001:0001B89C       t_ODBC_Connection.TODBCConnection.CheckSQLResult
 0001:0001B8D0       t_ODBC_Connection.TODBCConnection.Connect
 0001:0001BBD0       t_ODBC_Connection.TODBCConnection.Connected
 0001:0001BBD8       t_ODBC_Connection.TODBCConnection.DisConnect
 0001:0001BC08       t_ODBC_Connection.TODBCConnection.ExecuteDirectSQL
 0001:0001BCB0       t_ODBC_Connection.TODBCConnection.ExecuteDirectWithBlob
 0001:0001BDB4       t_ODBC_Connection.TODBCConnection.GetDSN
 0001:0001BDDC       t_ODBC_Connection.TODBCConnection.GetHENV
 0001:0001BDE4       t_ODBC_Connection.TODBCConnection.GetPWD
 0001:0001BE0C       t_ODBC_Connection.TODBCConnection.GetUID
 0001:0001BE34       t_ODBC_Connection.TODBCConnection.Init
 0001:0001BE88       t_ODBC_Connection.TODBCConnection.ODBCDriverInfoA
 0001:0001BFF4       t_ODBC_Connection.TODBCConnection.OpenDirectSQLFetchCols
 0001:0001C0E0       t_ODBC_Connection.TODBCConnection.SetDSN
 0001:0001C100       t_ODBC_Connection.TODBCConnection.SetPWD
 0001:0001C120       t_ODBC_Connection.TODBCConnection.SetUID
 0001:0001C140       t_ODBC_Connection.TODBCConnection.TableExistsDirect
 0001:0001C1D4       t_ODBC_Connection.TODBCConnection.Uninit
 0001:0001C1EC       t_ODBC_Connection.TOdbcEnvironment.Close
 0001:0001C208       t_ODBC_Connection.TOdbcEnvironment.FindDSN
 0001:0001C308       t_ODBC_Connection.TOdbcEnvironment.Init
 0001:0001C31C       t_ODBC_Connection.TOdbcEnvironment.Load
 0001:0001C414       t_ODBC_Connection.Finalization
 0001:0001C484       StrUtils.PosEx
 0001:0001C5A4       u_ZoomList..TZoomList
 0001:0001C600       u_ZoomList.TZoomList.Available
 0001:0001C608       u_ZoomList.TZoomList.Create
 0001:0001C660       u_ZoomList.TZoomList.EnableZoomInZoomBits
 0001:0001C674       u_ZoomList.TZoomList.ForeachStringPart
 0001:0001C784       u_ZoomList.TZoomList.GetHash
 0001:0001C788       u_ZoomList.TZoomList.ZoomInList
 0001:0001C79C       u_ZoomList.TZoomList.ZoomListToZoomBitsSub
 0001:0001C9F0       u_TileArea..TTileArea
 0001:0001CA64       u_TileArea.TTileArea.CalcGreaterZoom
 0001:0001CAA0       u_TileArea.TTileArea.CalcSmallerZoom
 0001:0001CAFC       u_TileArea.TTileArea.CheckTileInRect
 0001:0001CB24       u_TileArea.TTileArea.Create
 0001:0001CBC8       u_TileArea.TTileArea.EnableZoomInZoomBits
 0001:0001CC98       u_TileArea.TTileArea.ParseTileAreaItem
 0001:0001CDD0       u_TileArea.TTileArea.TileInArea
 0001:0001CEEC       t_TSS.TTSS_Info.ApplyDefinition
 0001:0001CFC0       t_TSS.TTSS_Info.Clear
 0001:0001CFDC       t_TSS.TTSS_Info.TileInSection
 0001:0001D044       t_TSS.TTSS_Primary_Params.ApplyAlgorithmValue
 0001:0001D0A0       t_TSS.TTSS_Primary_Params.ApplyLinkValue
 0001:0001D134       t_TSS.TTSS_Primary_Params.UseSingleConn
 0001:0001D150       IniFiles..EIniFileException
 0001:0001D1B0       IniFiles..TCustomIniFile
 0001:0001D280       IniFiles..TIniFile
 0001:0001D338       IniFiles.TCustomIniFile.Create
 0001:0001D374       IniFiles.TCustomIniFile.SectionExists
 0001:0001D3E0       IniFiles.TCustomIniFile.ReadInteger
 0001:0001D4B0       IniFiles.TCustomIniFile.WriteInteger
 0001:0001D50C       IniFiles.TCustomIniFile.ReadBool
 0001:0001D538       IniFiles.TCustomIniFile.ReadDate
 0001:0001D5F0       IniFiles.TCustomIniFile.ReadDateTime
 0001:0001D6A8       IniFiles.TCustomIniFile.ReadFloat
 0001:0001D760       IniFiles.TCustomIniFile.ReadTime
 0001:0001D818       IniFiles.TCustomIniFile.WriteDate
 0001:0001D880       IniFiles.TCustomIniFile.WriteDateTime
 0001:0001D8E0       IniFiles.TCustomIniFile.WriteFloat
 0001:0001D944       IniFiles.TCustomIniFile.WriteTime
 0001:0001D9C4       IniFiles.TCustomIniFile.WriteBool
 0001:0001D9E0       IniFiles.TCustomIniFile.ValueExists
 0001:0001DA50       IniFiles.TCustomIniFile.ReadBinaryStream
 0001:0001DBCC       IniFiles.TCustomIniFile.WriteBinaryStream
 0001:0001DD40       IniFiles.TCustomIniFile.ReadSections
 0001:0001DDF4       IniFiles.TIniFile.Destroy
 0001:0001DE20       IniFiles.TIniFile.ReadString
 0001:0001DE80       IniFiles.TIniFile.WriteString
 0001:0001DEEC       IniFiles.TIniFile.ReadSections
 0001:0001DFEC       IniFiles.TIniFile.ReadSection
 0001:0001E0F4       IniFiles.TIniFile.ReadSectionValues
 0001:0001E240       IniFiles.TIniFile.EraseSection
 0001:0001E294       IniFiles.TIniFile.DeleteKey
 0001:0001E2C4       IniFiles.TIniFile.UpdateFile
 0001:0001E2E0       IniFiles.Finalization
 0001:0001E328       Contnrs..TObjectList
 0001:0001E390       Contnrs.TObjectList.Add
 0001:0001E398       Contnrs.TObjectList.Create
 0001:0001E3D4       Contnrs.TObjectList.GetItem
 0001:0001E3E8       Contnrs.TObjectList.Notify
 0001:0001E414       NativeNTAPI.NtQueryValueKey
 0001:0001E41C       NativeNTAPI.NtSetValueKey
 0001:0001E424       NTRegistry.InternalPrepareRegValue
 0001:0001E494       NTRegistry.NTRegistryClearInfo
 0001:0001E4B8       NTRegistry.NTRegistryReadBuffer
 0001:0001E5D8       NTRegistry.NTRegistrySaveBuffer
 0001:0001E744       u_PStoreTools..TPStore
 0001:0001E81C       u_PStoreTools..TPKeyedCrypter
 0001:0001E878       u_PStoreTools.GetPStoreIface
 0001:0001E93C       u_PStoreTools.PrepareForLsa
 0001:0001E978       u_PStoreTools.ClearUSBuffer
 0001:0001E9A0       u_PStoreTools.TPStore.CreateDefaultCrypter
 0001:0001E9DC       u_PStoreTools.TPStore.CreateKeyedCrypter
 0001:0001EA18       u_PStoreTools.TPStore.Create
 0001:0001EA80       u_PStoreTools.TPStore.Destroy
 0001:0001EAB4       u_PStoreTools.TPKeyedCrypter.Create
 0001:0001EB4C       u_PStoreTools.TPKeyedCrypter.DecryptBuffer
 0001:0001EB90       u_PStoreTools.TPKeyedCrypter.Destroy
 0001:0001EBCC       u_PStoreTools.TPKeyedCrypter.EncryptBuffer
 0001:0001ECE4       u_PStoreTools.TPKeyedCrypter.KeyAvailable
 0001:0001ECEC       u_PStoreTools.TPKeyedCrypter.LoadSecret
 0001:0001EE40       u_PStoreTools.TPKeyedCrypter.SaveSecret
 0001:0001EF4C       u_PStoreTools.TALLRoutines.Clear
 0001:0001EF60       u_PStoreTools.TALLRoutines.GetKeyBlockLen
 0001:0001EF94       u_PStoreTools.TALLRoutines.InitLib
 0001:0001F28C       u_PStoreTools.TALLRoutines.LsaAvailable
 0001:0001F294       u_PStoreTools.TALLRoutines.LsaFreeBuffer
 0001:0001F2A4       u_PStoreTools.TALLRoutines.LsaReadBuffer
 0001:0001F3E0       u_PStoreTools.TALLRoutines.LsaSaveBuffer
 0001:0001F534       u_PStoreTools.TALLRoutines.OpenKeyByHash
 0001:0001F644       u_PStoreTools.TALLRoutines.UninitLib
 0001:0001F668       u_PStoreTools.Finalization
 0001:0001F6AC       u_DBMS_Utils.GetModuleFileNameWithoutExt
 0001:0001F7A8       u_DBMS_Utils.NowUTC
 0001:0001F81C       u_DBMS_Connect.GetConnectionByPath
 0001:0001F84C       u_DBMS_Connect.FreeDBMSConnection
 0001:0001F874       u_DBMS_Connect.TDBMS_Connection.AllowSavePassword
 0001:0001F87C       u_DBMS_Connect.TDBMS_Connection.ApplyConnectionParams
 0001:0001F9DC       u_DBMS_Connect.TDBMS_Connection.SaveInternalParameter
 0001:0001FC70       u_DBMS_Connect.TDBMS_Connection.Uninit
 0001:0001FD98       u_DBMS_Connect.TDBMS_Connection.ApplyCredentialsFormParams
 0001:0001FEA8       u_DBMS_Connect.TDBMS_Connection.ApplyParamsFromINI
 0001:0001FF88       u_DBMS_Connect.TDBMS_Connection.ApplySystemDSNtoConnection
 0001:00020014       u_DBMS_Connect.TDBMS_Connection.calc_exclusive_mode
 0001:0002002C       u_DBMS_Connect.TDBMS_Connection.EnsureConnected
 0001:00020174       u_DBMS_Connect.TDBMS_Connection.ForcedSchemaPrefix
 0001:0002018C       u_DBMS_Connect.TDBMS_Connection.FullSyncronizeSQL
 0001:000201A0       u_DBMS_Connect.TDBMS_Connection.GetInternalParameter
 0001:00020210       u_DBMS_Connect.TDBMS_Connection.GetSelectRowCount1Mode
 0001:0002023C       u_DBMS_Connect.TDBMS_Connection.GetUpsertMode
 0001:00020268       u_DBMS_Connect.TDBMS_Connection.GetCheckedEngineType
 0001:00020274       u_DBMS_Connect.TDBMS_Connection.GetConnectionErrorMessage
 0001:0002028C       u_DBMS_Connect.TDBMS_Connection.GetEngineType
 0001:00020354       u_DBMS_Connect._CheckSqlFromClause
 0001:00020460       u_DBMS_Connect.TDBMS_Connection.GetEngineTypeUsingSQL
 0001:0002097C       u_DBMS_Connect.TDBMS_Connection.Init
 0001:000209D0       u_DBMS_Connect.TDBMS_Connection.IsInternalParameter
 0001:000209EC       u_DBMS_Connect.TDBMS_Connection.IsTSSParameter
 0001:00020A30       u_DBMS_Connect.TDBMS_Connection.KeepAuthenticationInfo
 0001:00020A34       u_DBMS_Connect.TDBMS_Connection.NeedReconnect
 0001:00020A3C       u_DBMS_Connect.TDBMS_Connection.OpenDirectSQLFetchCols
 0001:00020A48       u_DBMS_Connect.TDBMS_Connection.PasswordStorage_ApplyStored
 0001:00020AB4       u_DBMS_Connect.TDBMS_Connection.PasswordStorage_ReadParams
 0001:00020C70       u_DBMS_Connect.TDBMS_Connection.PasswordStorage_SaveParams
 0001:00020DD4       u_DBMS_Connect.TDBMS_Connection.ProcessTSSParameter
 0001:0002125C       u_DBMS_Connect.TDBMS_Connection.ResetConnectionError
 0001:00021264       u_ExecuteSQLArray..TExecuteSQLItem
 0001:0002138C       u_ExecuteSQLArray..TExecuteSQLArray
 0001:00021434       u_ExecuteSQLArray..TSelectInRectList
 0001:000214A4       u_ExecuteSQLArray.TExecuteSQLArray.AddSQLItem
 0001:000214E8       u_ExecuteSQLArray.TExecuteSQLArray.GetSQLItem
 0001:0002150C       u_ExecuteSQLArray.TSelectInRectList.GetSelectInRectItems
 0001:00021524       u_ExecuteSQLArray.TSelectInRectList.Notify
 0001:0002181C       SevenZip..T7zStream
 0001:000219A0       SevenZip.RINOK
 0001:000219FC       SevenZip.SevenZipSetCompressionMethod
 0001:00021A80       SevenZip..T7zPlugin
 0001:00021ADC       SevenZip..T7zArchive
 0001:00021E90       SevenZip..T7zInArchive
 0001:000220EC       SevenZip..T7zOutArchive
 0001:00022164       SevenZip.CreateInArchive
 0001:0002219C       SevenZip.CreateOutArchive
 0001:000221D4       SevenZip.T7zPlugin.Create
 0001:000222E0       SevenZip.T7zPlugin.Destroy
 0001:00022314       SevenZip.T7zPlugin.CreateObject
 0001:0002237C       SevenZip.T7zInArchive.Close
 0001:000223A4       SevenZip.T7zInArchive.Create
 0001:000223FC       SevenZip.T7zInArchive.Destroy
 0001:00022430       SevenZip.T7zInArchive.GetInArchive
 0001:00022480       SevenZip.T7zInArchive.GetItemPath
 0001:000224E0       SevenZip.T7zInArchive.GetNumberOfItems
 0001:00022504       SevenZip.T7zInArchive.OpenFile
 0001:000225FC       SevenZip.T7zInArchive.OpenStream
 0001:0002269C       SevenZip.T7zInArchive.GetItemIsFolder
 0001:000226FC       SevenZip.T7zInArchive.GetItemProp
 0001:00022714       SevenZip.T7zInArchive.ExtractItem
 0001:0002280C       SevenZip.T7zInArchive.GetStream
 0001:00022960       SevenZip.T7zInArchive.PrepareOperation
 0001:0002296C       SevenZip.T7zInArchive.SetCompleted
 0001:00022998       SevenZip.T7zInArchive.SetCompleted
 0001:000229A4       SevenZip.T7zInArchive.SetOperationResult
 0001:000229B0       SevenZip.T7zInArchive.SetTotal
 0001:000229D4       SevenZip.T7zInArchive.SetTotal
 0001:000229E0       SevenZip.T7zInArchive.CryptoGetTextPassword
 0001:00022A7C       SevenZip.T7zInArchive.GetProperty
 0001:00022A88       SevenZip.T7zInArchive.GetStream
 0001:00022A94       SevenZip.T7zInArchive.SetPasswordCallback
 0001:00022AAC       SevenZip.T7zInArchive.SetSubArchiveName
 0001:00022ACC       SevenZip.T7zInArchive.GetItemName
 0001:00022B2C       SevenZip.T7zInArchive.GetItemSize
 0001:00022B8C       SevenZip.T7zInArchive.ExtractItems
 0001:00022C98       SevenZip.T7zInArchive.SetProgressCallback
 0001:00022CB0       SevenZip.T7zInArchive.ExtractAll
 0001:00022DB4       SevenZip.T7zInArchive.ExtractTo
 0001:00022E80       SevenZip.T7zInArchive.SetPassword
 0001:00022EA8       SevenZip.T7zArchive.Create
 0001:00022F78       SevenZip.T7zArchive.GetClassId
 0001:00022F88       SevenZip.T7zArchive.SetClassId
 0001:00022F98       SevenZip.T7zStream.Create
 0001:00022FE4       SevenZip.T7zStream.Destroy
 0001:00023020       SevenZip.T7zStream.Flush
 0001:0002302C       SevenZip.T7zStream.GetSize
 0001:00023050       SevenZip.T7zStream.Read
 0001:00023078       SevenZip.T7zStream.Seek
 0001:000230B0       SevenZip.T7zStream.SetSize
 0001:000230CC       SevenZip.T7zStream.Write
 0001:000230F4       SevenZip..T7zBatchItem
 0001:00023168       SevenZip.T7zBatchItem.Destroy
 0001:000231A8       SevenZip.T7zOutArchive.AddFile
 0001:00023250       SevenZip.Traverse
 0001:0002354C       SevenZip.T7zOutArchive.AddFiles
 0001:000235FC       SevenZip.T7zOutArchive.AddStream
 0001:00023678       SevenZip.T7zOutArchive.ClearBatch
 0001:0002368C       SevenZip.T7zOutArchive.Create
 0001:000236E0       SevenZip.T7zOutArchive.CryptoGetTextPassword2
 0001:00023720       SevenZip.T7zOutArchive.Destroy
 0001:0002375C       SevenZip.T7zOutArchive.GetOutArchive
 0001:000237AC       SevenZip.T7zOutArchive.GetProperty
 0001:00023894       SevenZip.T7zOutArchive.GetStream
 0001:00023920       SevenZip.T7zOutArchive.GetUpdateItemInfo
 0001:00023944       SevenZip.T7zOutArchive.SaveToFile
 0001:000239A0       SevenZip.T7zOutArchive.SaveToStream
 0001:00023A8C       SevenZip.T7zOutArchive.SetCompleted
 0001:00023AB8       SevenZip.T7zOutArchive.SetOperationResult
 0001:00023AC4       SevenZip.T7zOutArchive.SetPassword
 0001:00023ADC       SevenZip.T7zOutArchive.SetProgressCallback
 0001:00023AF4       SevenZip.T7zOutArchive.SetPropertie
 0001:00023BA8       SevenZip.T7zOutArchive.SetTotal
 0001:00023BCC       SevenZip.Finalization
 0001:00023D24       u_7zHolder..T7zHolder
 0001:00023D8C       u_7zHolder.T7zHolder.CheckIfInitOrFailed
 0001:00023D98       u_7zHolder.T7zHolder.Create
 0001:00023DDC       u_7zHolder.T7zHolder.CreateCompressor
 0001:00023E24       u_7zHolder.T7zHolder.CreateDecompressor
 0001:00023E60       u_7zHolder.T7zHolder.Destroy
 0001:00023E94       u_7zHolder.T7zHolder.InternalLoad7z
 0001:00023F40       u_7zHolder.T7zHolder.InternalUnload7z
 0001:00023F5C       ZLib..EZlibError
 0001:00023FB4       ZLib..ECompressionError
 0001:00024014       ZLib..EDecompressionError
 0001:00024074       ZLib._memset
 0001:00024088       ZLib._memcpy
 0001:0002409C       ZLib.zlibAllocMem
 0001:000240A8       ZLib.zlibFreeMem
 0001:000240B0       ZLib.CCheck
 0001:00024110       ZLib.DCheck
 0001:00024170       ZLib.CompressBuf
 0001:000242C8       ZLib.DecompressBuf
 0001:00024418       ZLib.deflateInit_
 0001:00024B9C       ZLib.deflate
 0001:00024F1C       ZLib.deflateEnd
 0001:00025F90       ZLib.inflateReset
 0001:00025FFC       ZLib.inflateEnd
 0001:00026184       ZLib.inflateInit_
 0001:000261B0       ZLib.inflate
 0001:000268FC       ZLib...
 0001:00026E90       ZLib.inflate_trees_bits
 0001:00026F04       ZLib.inflate_trees_dynamic
 0001:00027034       ZLib.inflate_trees_fixed
 0001:000271FC       ZLib.inflate_trees_free
 0001:00027288       ZLib...
 0001:0002758C       ZLib._tr_init
 0001:00028EB8       ZLib._tr_stored_block
 0001:00028FE0       ZLib._tr_align
 0001:000293CC       ZLib._tr_flush_block
 0001:0002970C       ZLib._tr_tally
 0001:0002A268       ZLib.adler32
 0001:0002A4A0       ZLib.inflate_blocks_reset
 0001:0002A570       ZLib.inflate_blocks_new
 0001:0002A618       ZLib.inflate_blocks
 0001:0002B8D0       ZLib.inflate_blocks_free
 0001:0002B91C       ZLib.inflate_set_dictionary
 0001:0002B960       ZLib.inflate_codes_new
 0001:0002B9C4       ZLib.inflate_codes
 0001:0002C69C       ZLib.inflate_codes_free
 0001:0002C6BC       ZLib.inflate_flush
 0001:0002C888       ZLib.inflate_fast
 0001:0002CDF4       ALZLibExApi.zcalloc
 0001:0002CE04       ALZLibExApi.zcfree
 0001:0002CE10       ALZLibExApi.memset
 0001:0002CE2C       ALZLibExApi.memcpy
 0001:0002CE40       ALZLibExApi._llmod
 0001:0002CE48       ALZLibExApi.deflateInit_
 0001:0002CE64       ALZLibExApi.deflateInit2_
 0001:0002D2B4       ALZLibExApi.deflateReset
 0001:0002D604       ALZLibExApi.deflate
 0001:0002DEEC       ALZLibExApi.deflateEnd
 0001:0002F2B4       ALZLibExApi...
 0001:0002F330       ALZLibExApi.inflateReset
 0001:0002F3DC       ALZLibExApi.inflateInit2_
 0001:0002F480       ALZLibExApi.inflateInit_
 0001:0002F614       ALZLibExApi.inflate
 0001:00030BF4       ALZLibExApi.inflateEnd
 0001:00030FEC       ALZLibExApi.@inflate_table
 0001:00031428       ALZLibExApi.@inflate_fast
 0001:00031934       ALZLibExApi...
 0001:00031938       ALZLibExApi.@_tr_init
 0001:00032A1C       ALZLibExApi.@_tr_stored_block
 0001:00032AD8       ALZLibExApi.@_tr_flush_bits
 0001:00032AE0       ALZLibExApi.@_tr_align
 0001:00032C30       ALZLibExApi.@_tr_flush_block
 0001:00033598       ALZLibExApi.adler32
 0001:00033900       ALZLibExApi...
 0001:00033908       ALZLibExApi.crc32
 0001:000341BC       ALZLibExApi.Finalization
 0001:00034204       ALZLibEx..EZLibError
 0001:0003425C       ALZLibEx..EZCompressionError
 0001:000342BC       ALZLibEx..EZDecompressionError
 0001:00034320       ALZLibEx.ZCompressCheck
 0001:00034344       ALZLibEx.ZDecompressCheck
 0001:00034374       ALZLibEx.ZInternalCompressStream
 0001:00034490       ALZLibEx.ZInternalDecompressStream
 0001:000345BC       ALZLibEx.ZCompressStream2
 0001:0003462C       ALZLibEx.ZDecompressStream2
 0001:00034678       ALZLibEx.EZLibError.Create
 0001:000346CC       ALZLibEx.EZLibError.Create
 0001:00034718       DateUtils.DateTimeToUnix
 0001:0003474C       DateUtils.UnixToDateTime
 0001:00034778       ALZLibExGZ.GZCompressStream
 0001:000349A0       ALZLibExGZ.GZCompressStream
 0001:000349B4       ALZLibExGZ.GZDecompressStream
 0001:00034D44       ALZLibExGZ.GZDecompressStream
 0001:00034D98       u_CompressBinaryData..TPointerMemoryStream
 0001:00034E18       u_CompressBinaryData.Set7zHolder
 0001:00034E30       u_CompressBinaryData.EnsureMemStream
 0001:00034E54       u_CompressBinaryData.CheckZLibHeader
 0001:00034E5C       u_CompressBinaryData.CheckGZHeader
 0001:00034E78       u_CompressBinaryData.Check7zHeader
 0001:00034E90       u_CompressBinaryData.GZRawInternal
 0001:00034F14       u_CompressBinaryData.GZRawCompress2Stream
 0001:00034F24       u_CompressBinaryData.GZRawDecompress2Stream
 0001:00034F34       u_CompressBinaryData.SevenZipRawCompress2Stream
 0001:000350D0       u_CompressBinaryData.SevenZipRawDecompress2Stream
 0001:0003529C       u_CompressBinaryData.RawCompress2BinaryData
 0001:00035444       u_CompressBinaryData.RawDecompress2BinaryData
 0001:00035628       u_CompressBinaryData.TPointerMemoryStream.Write
 0001:0003562C       u_CompressBinaryData.TCompressTileRec.Cleanup
 0001:00035650       u_CompressBinaryData.Finalization
 0001:000356DC       u_Exif_Parser._GetNextWord
 0001:000356F0       u_Exif_Parser._GetNextDWORD
 0001:00035714       u_Exif_Parser._ReadIFD12
 0001:00035758       u_Exif_Parser._FindSection
 0001:0003579C       u_Exif_Parser.FindExifInJpeg
 0001:00035AB4       u_Tile_Parser.ExtractFromTag
 0001:00035B74       u_Tile_Parser.GetVersionNumberForDateTimeAsZeroDifference
 0001:00035B94       u_Tile_Parser.ParseFullyQualifiedDateTime
 0001:00035E0C       u_Tile_Parser.ParseLatestXMLtoVersion
 0001:000363E4       u_Tile_Parser.ParseExifForNMC
 0001:00036704       u_Lang.HTTPDecode
 0001:0003696C       u_Lang.Finalization
 0001:00036A2C       u_DBMS_TileEnum..TDBMS_TileEnum
 0001:00036ADC       u_DBMS_TileEnum.TDBMS_TileEnum.CallHostForCurrentRecord
 0001:00036CF8       u_DBMS_TileEnum.TDBMS_TileEnum.CannotSwitchToNextSection
 0001:00036D48       u_DBMS_TileEnum.TDBMS_TileEnum.ConnChanged
 0001:00036EAC       u_DBMS_TileEnum.TDBMS_TileEnum.Create
 0001:00037000       u_DBMS_TileEnum.TDBMS_TileEnum.Destroy
 0001:00037048       u_DBMS_TileEnum.TDBMS_TileEnum.GetNextTile
 0001:000371EC       u_DBMS_TileEnum.TDBMS_TileEnum.GetTablesWithTilesBySelect
 0001:000372EC       u_DBMS_TileEnum.TDBMS_TileEnum.GetZoomAndHighXYFromCurrentTable
 0001:000374A4       u_DBMS_TileEnum.TDBMS_TileEnum.InitTileCache
 0001:000374EC       u_DBMS_TileEnum.TDBMS_TileEnum.InternalClose
 0001:000374FC       u_DBMS_TileEnum.TDBMS_TileEnum.InternalFetch
 0001:0003750C       u_DBMS_TileEnum.TDBMS_TileEnum.OpenNextTableAndFetch
 0001:000378A8       u_DBMS_TileEnum.TDBMS_TileEnum.ReadListOfTables
 0001:00037900       u_DBMS_TileEnum.TDBMS_TileEnum.SetError
 0001:0003790C       u_SQLScriptParser..TSQLScriptParser
 0001:00037A38       u_SQLScriptParser.TSQLScriptParser.AddExceptionToErrors
 0001:00037AC0       u_SQLScriptParser.TSQLScriptParser.GetNextDivLineIndex
 0001:00037C48       u_SQLScriptParser.TSQLScriptParser.GetSQLDivider
 0001:00037D24       u_SQLScriptParser.TSQLScriptParser.ParseSQL
 0001:00037E10       u_DBMS_Template..TSQLScriptParser_SQL
 0001:00037F64       u_DBMS_Template.TSQLScriptParser_SQL.Create
 0001:0003805C       u_DBMS_Template.TSQLScriptParser_SQL.Destroy
 0001:0003808C       u_DBMS_Template.TSQLScriptParser_SQL.ExecuteAllSQLs
 0001:0003828C       u_DBMS_Template.TSQLScriptParser_SQL.LineIsEmptyOrComment
 0001:000382C8       u_DBMS_Template.TSQLScriptParser_SQL.LoadScript_Internal
 0001:00038334       u_DBMS_Template.TSQLScriptParser_SQL.LoadScript_SQL
 0001:00038358       u_DBMS_Template.TSQLScriptParser_SQL.LoadScript_XQL
 0001:00038378       u_DBMS_Template.TSQLScriptParser_SQL.ParserFoundProc_SQL
 0001:000385C4       u_DBMS_Template.TSQLScriptParser_SQL.ParseXQL
 0001:000388C8       u_DBMS_Provider..TDBMS_Provider
 0001:00038970       u_DBMS_Provider._AddWithoutFieldValue
 0001:00038AB0       u_DBMS_Provider._AddWithFieldValue
 0001:00038B18       u_DBMS_Provider.TDBMS_Provider.AddVersionOrderBy
 0001:00038D3C       u_DBMS_Provider.TDBMS_Provider.AutoCreateServiceRecord
 0001:00038E10       u_DBMS_Provider.TDBMS_Provider.AutoCreateServiceVersion
 0001:0003908C       u_DBMS_Provider.TDBMS_Provider.CheckSecondaryConnections
 0001:000390C4       u_DBMS_Provider.TDBMS_Provider.CheckTileInCommonTiles
 0001:000390D4       u_DBMS_Provider.TDBMS_Provider.ChooseConnection
 0001:00039148       u_DBMS_Provider.TDBMS_Provider.ClearUnknownExceptions
 0001:000391A0       u_DBMS_Provider.TDBMS_Provider.Create
 0001:000392F0       u_DBMS_Provider.TDBMS_Provider.CreateAllBaseTablesFromScript
 0001:00039348       u_DBMS_Provider._GetTxtSQL
 0001:000393B8       u_DBMS_Provider.TDBMS_Provider.CreateTableByTemplate
 0001:00039DF4       u_DBMS_Provider.TDBMS_Provider.DBMS_Complete
 0001:00039E14       u_DBMS_Provider.TDBMS_Provider.DBMS_DeleteTile
 0001:00039F88       u_DBMS_Provider.TDBMS_Provider.DBMS_EnumTileVersions
 0001:0003A3FC       u_DBMS_Provider._AddReturnFooter
 0001:0003A45C       u_DBMS_Provider._AddTileLoadSaveModeLine
 0001:0003A5DC       u_DBMS_Provider._AddTileLoadModeLine
 0001:0003A620       u_DBMS_Provider._AddTileSaveModeLine
 0001:0003A664       u_DBMS_Provider._AddTable3ColHeader
 0001:0003A6D4       u_DBMS_Provider._AddVerCompItem
 0001:0003A7BC       u_DBMS_Provider._AddVerByTileItem
 0001:0003A908       u_DBMS_Provider._TrimLeftDelims
 0001:0003A938       u_DBMS_Provider._ExtractPart
 0001:0003A9C4       u_DBMS_Provider._AddPreamble
 0001:0003ACD4       u_DBMS_Provider._ReloadVersions
 0001:0003AD3C       u_DBMS_Provider._AddListOfVersions
 0001:0003AFA8       u_DBMS_Provider._AllowSavePassword
 0001:0003AFCC       u_DBMS_Provider._AddHtmlLabelCheckbox
 0001:0003B0B8       u_DBMS_Provider._CalcSQLTileFromForm
 0001:0003B3A8       u_DBMS_Provider._ParseFormValues
 0001:0003BCC8       u_DBMS_Provider._GetUrlForRequestType
 0001:0003BDD4       u_DBMS_Provider._AddFormWithPreparedMakeVersion
 0001:0003C300       u_DBMS_Provider.TDBMS_Provider.DBMS_ExecOption
 0001:0003DC18       u_DBMS_Provider.TDBMS_Provider.DBMS_GetTileRectInfo
 0001:0003DFEC       u_DBMS_Provider.TDBMS_Provider.DBMS_InsertTile
 0001:0003E414       u_DBMS_Provider.TDBMS_Provider.DBMS_MakeTileEnum
 0001:0003E528       u_DBMS_Provider.TDBMS_Provider.DBMS_SelectTile
 0001:0003EB84       u_DBMS_Provider.TDBMS_Provider.DBMS_SetInformation
 0001:0003ECA8       u_DBMS_Provider.TDBMS_Provider.DBMS_SetTileVersion
 0001:0003EEDC       u_DBMS_Provider.TDBMS_Provider.Destroy
 0001:0003EFE4       u_DBMS_Provider.TDBMS_Provider.DoBeginWork
 0001:0003F030       u_DBMS_Provider.TDBMS_Provider.DoEndWork
 0001:0003F04C       u_DBMS_Provider.TDBMS_Provider.DoOnDeadConnection
 0001:0003F070       u_DBMS_Provider.TDBMS_Provider.DoResetConnectionError
 0001:0003F0A0       u_DBMS_Provider.TDBMS_Provider.FillTableNamesForTiles
 0001:0003F234       u_DBMS_Provider.TDBMS_Provider.GetContentTypeAnsiPointer
 0001:0003F310       u_DBMS_Provider.TDBMS_Provider.GetContentTypeWideString
 0001:0003F3F0       u_DBMS_Provider.TDBMS_Provider.GetGuidesConnection
 0001:0003F3F4       u_DBMS_Provider.TDBMS_Provider.GetMaxNextVersionInts
 0001:0003F618       u_DBMS_Provider.TDBMS_Provider.GetNewIdService
 0001:0003F754       u_DBMS_Provider.TDBMS_Provider.GetSQLIntName_Div
 0001:0003FABC       u_DBMS_Provider.TDBMS_Provider.GetSQL_AddIntWhereClause
 0001:0003FC44       u_DBMS_Provider.TDBMS_Provider.GetSQL_CheckPrevVersion
 0001:00040110       u_DBMS_Provider.TDBMS_Provider.GetSQL_DeleteTile
 0001:000402E4       u_DBMS_Provider.TDBMS_Provider.GetSQL_EnumTileVersions
 0001:00040488       u_DBMS_Provider.TDBMS_Provider.GetSQL_GetTileRectInfo
 0001:00040730       u_DBMS_Provider.TDBMS_Provider.GetSQL_InsertIntoService
 0001:00040B74       u_DBMS_Provider.TDBMS_Provider.GetSQL_InsertUpdateTile
 0001:00041918       u_DBMS_Provider.TDBMS_Provider.GetSQL_SelectTile
 0001:000419F8       u_DBMS_Provider.TDBMS_Provider.GetSQL_SelectTilesInternal
 0001:00042090       u_DBMS_Provider.TDBMS_Provider.GetSQL_SetTileVersion
 0001:00042370       u_DBMS_Provider.TDBMS_Provider.GetVersionAnsiPointer
 0001:0004244C       u_DBMS_Provider.TDBMS_Provider.GetVersionWideString
 0001:0004252C       u_DBMS_Provider.TDBMS_Provider.GuidesBeginWork
 0001:00042548       u_DBMS_Provider.TDBMS_Provider.GuidesEndWork
 0001:00042564       u_DBMS_Provider.TDBMS_Provider.HasUnknownExceptions
 0001:000425D8       u_DBMS_Provider.TDBMS_Provider.InternalCalcSQLTile
 0001:00042648       u_DBMS_Provider.TDBMS_Provider.InternalDivideXY
 0001:000426A4       u_DBMS_Provider.TDBMS_Provider.InternalGetContentTypeAnsiValues
 0001:00042708       u_DBMS_Provider.TDBMS_Provider.InternalGetServiceNameByDB
 0001:00042720       u_DBMS_Provider.TDBMS_Provider.InternalGetServiceNameByHost
 0001:00042738       u_DBMS_Provider.TDBMS_Provider.InternalGetVersionAnsiValues
 0001:0004279C       u_DBMS_Provider.TDBMS_Provider.InternalProv_Cleanup
 0001:000427C4       u_DBMS_Provider.TDBMS_Provider.InternalProv_ClearGuides
 0001:000427E0       u_DBMS_Provider.TDBMS_Provider.InternalProv_ClearServiceInfo
 0001:0004282C       u_DBMS_Provider.TDBMS_Provider.InternalProv_Connect
 0001:000429D4       u_DBMS_Provider.TDBMS_Provider.InternalProv_Disconnect
 0001:000429EC       u_DBMS_Provider.TDBMS_Provider.InternalProv_ReadServiceInfo
 0001:0004302C       u_DBMS_Provider.TDBMS_Provider.InternalProv_SetStorageIdentifier
 0001:0004314C       u_DBMS_Provider.TDBMS_Provider.IsUninitialized
 0001:00043154       u_DBMS_Provider.TDBMS_Provider.MakeEmptyVersionInDB
 0001:00043268       u_DBMS_Provider.TDBMS_Provider.MakePtrVersionInDB
 0001:00043524       u_DBMS_Provider._DecodedValue
 0001:000435A0       u_DBMS_Provider.TDBMS_Provider.MakeVersionByFormParams
 0001:00043A10       u_DBMS_Provider.TDBMS_Provider.ParseMakeVersionSource
 0001:00043AB8       u_DBMS_Provider._AllowSaveQualifierValue
 0001:00043BA0       u_DBMS_Provider._ParseExtractedValue
 0001:00043D58       u_DBMS_Provider.TDBMS_Provider.ParseVersionSource
 0001:00043E40       u_DBMS_Provider._ExtractTailByte
 0001:00043F10       u_DBMS_Provider.TDBMS_Provider.ParseVerValueToVerNumber
 0001:00043FAC       u_DBMS_Provider.TDBMS_Provider.GetStatementExceptionType
 0001:00044200       u_DBMS_Provider.TDBMS_Provider.GetUndefinedConnection
 0001:00044204       u_DBMS_Provider.TDBMS_Provider.GetUnknownExceptions
 0001:00044274       u_DBMS_Provider.TDBMS_Provider.ReadContentTypesFromDB
 0001:000444B0       u_DBMS_Provider.TDBMS_Provider.ReadVersionsFromDB
 0001:00044760       u_DBMS_Provider.TDBMS_Provider.SaveUnknownException
 0001:00044808       u_DBMS_Provider.TDBMS_Provider.SQLDateTimeToDBValue
 0001:00044930       u_DBMS_Provider.TDBMS_Provider.SQLDateTimeToVersionValue
 0001:00044974       u_DBMS_Provider.TDBMS_Provider.SwitchHostToVersion
 0001:000449BC       u_DBMS_Provider.TDBMS_Provider.TryToObtainVerByTile
 0001:00044AD8       u_DBMS_Provider.TDBMS_Provider.Uninitialize
 0001:00044AE0       u_DBMS_Provider.TDBMS_Provider.UpdateServiceVerComp
 0001:00044C84       u_DBMS_Provider.TDBMS_Provider.UpdateTileLoadMode
 0001:00044E78       u_DBMS_Provider.TDBMS_Provider.UpdateTileSaveMode
 0001:0004506C       u_DBMS_Provider.TDBMS_Provider.UpdateVerByTileMode
 0001:00045208       u_DBMS_Provider.TDBMS_Provider.UseSectionByTableXY
 0001:00045214       u_DBMS_Provider.TDBMS_Provider.UseSectionByTileXY
 0001:00045220       u_DBMS_Provider.TDBMS_Provider.VersionExistsInDBWithIdVer
 0001:00045324       u_DBMS_Provider.Finalization
 0001:00045480       u_exports.ETS_Initialize
 0001:00045544       u_exports.ETS_Uninitialize
 0001:0004559C       u_exports.ETS_Complete
 0001:000455F0       u_exports.ETS_Sync
 0001:00045638       u_exports.ETS_SetInformation
 0001:00045698       u_exports.ETS_SelectTile
 0001:00045710       u_exports.ETS_InsertTile
 0001:00045788       u_exports.ETS_InsertTNE
 0001:000457EC       u_exports.ETS_DeleteTile
 0001:00045850       u_exports.ETS_SetTileVersion
 0001:000458B4       u_exports.ETS_EnumTileVersions
 0001:0004592C       u_exports.ETS_GetTileRectInfo
 0001:000459A4       u_exports.ETS_MakeTileEnum
 0001:00045A20       u_exports.ETS_KillTileEnum
 0001:00045A70       u_exports.ETS_NextTileEnum
 0001:00045AE8       u_exports.ETS_ExecOption
 0001:00045B50       u_exports.ETS_FreeMem
 0001:00045B6C       TileStorage_DBMS.Finalization
 0002:00000000       System.System
 0002:00000098       Windows.Windows
 0002:000000AC       SysUtils.SysUtils
 0002:00000134       VarUtils.VarUtils
 0002:00000144       Variants.Variants
 0002:000001F0       TypInfo.TypInfo
 0002:000001F8       Classes.Classes
 0002:0000028C       t_SQL_types.t_SQL_types
 0002:00000294       u_Synchronizer.u_Synchronizer
 0002:000002E4       t_ODBC_Connection.t_ODBC_Connection
 0002:000002FC       IniFiles.IniFiles
 0002:00000304       u_PStoreTools.u_PStoreTools
 0002:00000340       SevenZip.SevenZip
 0002:00000354       ALZLibExApi.ALZLibExApi
 0002:0000035C       u_CompressBinaryData.u_CompressBinaryData
 0002:00000398       u_Lang.u_Lang
 0002:000003A0       u_DBMS_Provider.u_DBMS_Provider
 0002:000003C8       TileStorage_DBMS.TileStorage_DBMS
 0003:00000000       System.ExitCode
 0003:00000004       System.ErrorAddr
 0003:00000008       System.FileMode
 0003:0000000C       System.VarClearProc
 0003:00000010       System.VarAddRefProc
 0003:00000014       System.VarCopyProc
 0003:00000018       System.VarToLStrProc
 0003:0000001C       System.VarToWStrProc
 0003:00000020       System.Default8087CW
 0003:00000024       System.DebugHook
 0003:00000028       System.JITEnable
 0003:0000002C       System.NoErrMsg
 0003:00000030       System.LibModuleList
 0003:00000034       System.ModuleUnloadList
 0003:00000038       System.Copyright
 0003:0000003C       System.SmallBlockTypes
 0003:0000071C       System.MemoryManager
 0003:00000734       System.reMap
 0003:00000750       System.errCaption
 0003:00000758       System.runErrMsg
 0003:00000778       System.dig
 0003:00000788       SysInit.TlsIndex
 0003:0000078C       SysInit.PtrToNil
 0003:00000790       SysInit.Module
 0003:000007A8       SysInit.TlsProc
 0003:000007B8       SysUtils.EmptyStr
 0003:000007BC       SysUtils.EmptyWideStr
 0003:000007C0       SysUtils.Win32Platform
 0003:000007C4       SysUtils.Win32MajorVersion
 0003:000007C8       SysUtils.Win32MinorVersion
 0003:000007CC       SysUtils.Win32BuildNumber
 0003:000007D0       SysUtils.Win32CSDVersion
 0003:000007D4       SysUtils.TwoDigitYearCenturyWindow
 0003:000007D8       SysUtils.MonthDays
 0003:00000808       SysUtils.LeadBytes
 0003:00000828       SysUtils.HexDisplayPrefix
 0003:0000082C       SysUtils.GetDiskFreeSpaceEx
 0003:00000830       SysUtils.cSimpleBoolStrs
 0003:00000838       SysUtils.AccessMode
 0003:00000844       SysUtils.ShareMode
 0003:00000858       SysUtils.FormatErrorStrs
 0003:00000860       SysUtils.FCon1E18
 0003:0000086C       SysUtils.DCon10
 0003:00000870       SysUtils.CWNear
 0003:00000874       SysUtils.FMSecsPerDay
 0003:00000878       SysUtils.IMSecsPerDay
 0003:0000087C       SysUtils.Format
 0003:00000880       SysUtils.Format
 0003:00000884       SysUtils.DefShortMonthNames
 0003:000008B4       SysUtils.DefLongMonthNames
 0003:000008E4       SysUtils.DefShortDayNames
 0003:00000900       SysUtils.DefLongDayNames
 0003:0000091C       SysUtils.ErrorMap
 0003:00000954       SysUtils.ExceptMap
 0003:00000A04       SysUtils.TerminateProcList
 0003:00000A08       ActiveX.GUID_NULL
 0003:00000A18       VarUtils.CResult
 0003:00000A20       Variants.NullStrictConvert
 0003:00000A24       Variants.NullAsStringValue
 0003:00000A28       Variants.BooleanToStringRule
 0003:00000A2C       Variants.CInvalidCustomVariantType
 0003:00000A30       Variants.CText
 0003:00000A84       Variants.CRelationshipToBoolean
 0003:00000A98       TypInfo.BooleanIdents
 0003:00000AA0       TypInfo.DotSep
 0003:00000AA4       Classes.Convert
 0003:00000AB4       Classes.Convert
 0003:00000B24       Classes.SyncList
 0003:00000B28       t_SQL_types.c_SQL_Engine_Name
 0003:00000B54       t_SQL_types.c_SQL_DateTime_FunctionName
 0003:00000B80       t_SQL_types.c_SQL_DateTime_FieldName
 0003:00000BAC       t_SQL_types.c_SQL_DateTime_Literal_Prefix
 0003:00000BD8       t_SQL_types.c_SQL_Empty_Version_Denied
 0003:00000BE4       t_SQL_types.c_SQL_INT8_FieldName
 0003:00000C10       t_SQL_types.c_SQL_INT4_FieldName
 0003:00000C3C       t_SQL_types.c_SQL_INT3_FieldName
 0003:00000C68       t_SQL_types.c_SQL_INT2_FieldName
 0003:00000C94       t_SQL_types.c_SQL_INT1_FieldName
 0003:00000CC0       t_SQL_types.c_SQL_INT_With_Size
 0003:00000CCC       t_SQL_types.c_SQL_FROM
 0003:00000CF8       t_SQL_types.c_SQL_RowCount1_Mode
 0003:00000D04       t_SQL_types.c_SQL_UpsertMode
 0003:00000D10       t_SQL_types.c_SQL_ProcedureNew_Mode
 0003:00000D1C       t_SQL_types.c_SQL_DUAL_Create
 0003:00000D48       t_SQL_types.c_SQL_ENUM_SVC_Tables
 0003:00000D74       t_SQL_types.c_SQL_QuotedIdentifierForcedForTiles
 0003:00000D80       t_SQL_types.c_SQL_QuotedIdentifierValue
 0003:00000D98       t_SQL_types.c_SQL_DateTimeForEmptyVersion
 0003:00000DF0       t_SQL_types.c_ODBC_SQLSTATE_TableNotEists_1
 0003:00000E1C       t_SQL_types.c_ODBC_SQLSTATE_TableNotEists_2
 0003:00000E48       t_SQL_types.c_ODBC_SQLSTATE_PrimaryKeyViolation
 0003:00000E74       t_SQL_types.c_ODBC_SQLSTATE_NoSpaceAvailable_1
 0003:00000EA0       t_SQL_types.c_ODBC_SQLSTATE_NoSpaceAvailable_2
 0003:00000ECC       t_SQL_types.c_ODBC_SQLSTATE_ConnectionIsDead_1
 0003:00000EF8       t_SQL_types.c_ODBC_SQLSTATE_ConnectionIsDead_2
 0003:00000F24       t_SQL_types.c_ODBC_SQLSTATE_DataTruncation
 0003:00000F50       t_SQL_types.c_ODBC_SQLSTATE_UnsynchronizedStatements
 0003:00000F7C       t_SQL_types.c_ODBC_SQLSTATE_ReadOnlyConnection
 0003:00000FA8       IniFiles.Values
 0003:00000FB0       SevenZip.CLSID_CFormat7z
 0003:00000FC0       SevenZip.MAXCHECK
 0003:00000FC8       SevenZip.ZipCompressionMethod
 0003:00000FE0       SevenZip.ZipEncryptionMethod
 0003:00000FF0       SevenZip.SevCompressionMethod
 0003:00001008       ZLib...
 0003:000010C0       ZLib...
 0003:00001134       ZLib...
 0003:000013E0       ZLib...
 0003:0000156C       ZLib...
 0003:00001628       ZLib...
 0003:0000165C       ZLib._inflate_mask
 0003:000016A0       ZLib...
 0003:000016D4       ALZLibExApi.ZLIB_VERSION
 0003:000016D8       ALZLibExApi.z_errmsg
 0003:00001700       ALZLibExApi...
 0003:000017C4       ALZLibExApi...
 0003:00002240       ALZLibExApi...
 0003:0000236C       ALZLibExApi...
 0003:000023BC       ALZLibExApi...
 0003:00002B27       ALZLibExApi._dist_code
 0003:00002D27       ALZLibExApi._length_code
 0003:00002E28       ALZLibExApi...
 0003:00004E28       ALZLibEx.ZLevels
 0003:00004E5C       ALZLibEx.ZStrategies
 0003:00004E70       ALZLibEx.ZErrors
 0003:00004E88       ALZLibEx.ZFlushes
 0003:00004EA4       u_CompressBinaryData.ZCompressTileRec
 0003:00004EB0       u_CompressBinaryData.ZFileTime
 0003:00004EB8       u_Tile_Parser.c_ZeroVersionNumber_DateTime
 0003:00004EC0       u_Lang.CAlRfc822DaysOfWeek
 0003:00004EDC       u_Lang.CALRfc822MonthNames
 0003:00004F0C       u_DBMS_Provider.c_InsertOnDupUpdate_Ins
 0003:00004F18       u_DBMS_Provider.c_InsertOnDupUpdate_Sel
 0003:00004F24       u_DBMS_Provider.c_InsertOnDupUpdate_Upd
 0003:00004F30       u_DBMS_Provider.c_DualMerge_Sel
 0003:00004F3C       u_DBMS_Provider.c_DualMerge_Ins
 0003:00004F48       u_DBMS_Provider.c_DualMerge_Val
 0003:00004F54       u_DBMS_Provider.c_DualMerge_Upd
 0003:00004F60       u_DBMS_Provider.c_Merge_Sel
 0003:00004F6C       u_DBMS_Provider.c_Merge_Ins
 0003:00004F78       u_DBMS_Provider.c_Merge_Val
 0003:00004F84       u_DBMS_Provider.c_Merge_Upd
 0003:00004F90       u_DBMS_Provider.c_Insert_Ins
 0003:00004F9C       u_DBMS_Provider.c_Insert_Val
 0003:00004FA8       u_DBMS_Provider.c_Update_Upd
 0004:00000000       System.DispCallByIDProc
 0004:00000004       System.ExceptProc
 0004:00000008       System.ErrorProc
 0004:0000000C       System.ExceptClsProc
 0004:00000010       System.ExceptObjProc
 0004:00000014       System.RaiseExceptionProc
 0004:00000018       System.RTLUnwindProc
 0004:0000001C       System.ExceptionClass
 0004:00000020       System.AssertErrorProc
 0004:00000024       System.ExitProcessProc
 0004:00000028       System.AbstractErrorProc
 0004:0000002C       System.MainInstance
 0004:00000030       System.MainThreadID
 0004:00000034       System.IsLibrary
 0004:00000038       System.CmdShow
 0004:0000003C       System.CmdLine
 0004:00000040       System.ExitProc
 0004:00000044       System.IsConsole
 0004:00000045       System.IsMultiThread
 0004:00000046       System.Test8086
 0004:00000048       System.Input
 0004:00000214       System.Output
 0004:000003E0       System.ErrOutput
 0004:000005AC       System.ReportMemoryLeaksOnShutdown
 0004:000005AD       System.NeverSleepOnMMThreadContention
 0004:000005B0       System..6
 0004:000005B4       System.DefaultSystemCodePage
 0004:000005B8       System.AllocSize2SmallBlockTypeIndX4
 0004:000006FE       System.MinimumBlockAlignment
 0004:00000700       System.MediumBlockPoolsCircularList
 0004:00000710       System.MediumBlocksLocked
 0004:00000714       System.LastSequentiallyFedMediumBlock
 0004:00000718       System.MediumSequentialFeedBytesLeft
 0004:0000071C       System.MediumBlockBinGroupBitmap
 0004:00000720       System.MediumBlockBinBitmaps
 0004:000007A0       System.MediumBlockBins
 0004:000027A0       System.LargeBlocksLocked
 0004:000027A4       System.LargeBlocksCircularList
 0004:000027B4       System.ExpectedMemoryLeaks
 0004:000027B8       System.ExpectedMemoryLeaksListLocked
 0004:000027BC       System.MMSharingWindow
 0004:000027C0       System.InitContext
 0004:000027EC       SysInit.ModuleIsLib
 0004:000027ED       SysInit.ModuleIsCpp
 0004:000027F0       SysInit.HInstance
 0004:000027F4       SysInit.DllProc
 0004:000027F8       SysInit.tlsBuffer
 0004:000027FC       Windows..3
 0004:00002800       Windows.HtmlHelpModule
 0004:00002804       SysUtils.CurrencyString
 0004:00002808       SysUtils.CurrencyFormat
 0004:00002809       SysUtils.NegCurrFormat
 0004:0000280A       SysUtils.ThousandSeparator
 0004:0000280B       SysUtils.DecimalSeparator
 0004:0000280C       SysUtils.CurrencyDecimals
 0004:0000280D       SysUtils.DateSeparator
 0004:00002810       SysUtils.ShortDateFormat
 0004:00002814       SysUtils.LongDateFormat
 0004:00002818       SysUtils.TimeSeparator
 0004:0000281C       SysUtils.TimeAMString
 0004:00002820       SysUtils.TimePMString
 0004:00002824       SysUtils.ShortTimeFormat
 0004:00002828       SysUtils.LongTimeFormat
 0004:0000282C       SysUtils.ShortMonthNames
 0004:0000285C       SysUtils.LongMonthNames
 0004:0000288C       SysUtils.ShortDayNames
 0004:000028A8       SysUtils.LongDayNames
 0004:000028C4       SysUtils.SysLocale
 0004:000028D2       SysUtils.ListSeparator
 0004:000028D4       SysUtils.EraNames
 0004:000028F0       SysUtils.EraYearOffsets
 0004:0000290C       SysUtils.TrueBoolStrs
 0004:00002910       SysUtils.FalseBoolStrs
 0004:00002914       SysUtils..35
 0004:00002918       SysUtils.OutOfMemory
 0004:0000291C       SysUtils.InvalidPointer
 0004:00002920       SysUtils.ValidatedUnitHashBuckets
 0004:00003914       SysUtils.UnitHashBuckets
 0004:00004908       SysUtils.FLanguages
 0004:0000490C       VarUtils.VariantChangeTypeEx
 0004:00004910       VarUtils.VarNeg
 0004:00004914       VarUtils.VarNot
 0004:00004918       VarUtils.VarAdd
 0004:0000491C       VarUtils.VarSub
 0004:00004920       VarUtils.VarMul
 0004:00004924       VarUtils.VarDiv
 0004:00004928       VarUtils.VarIDiv
 0004:0000492C       VarUtils.VarMod
 0004:00004930       VarUtils.VarAnd
 0004:00004934       VarUtils.VarOr
 0004:00004938       VarUtils.VarXor
 0004:0000493C       VarUtils.VarCmp
 0004:00004940       VarUtils.VarI4FromStr
 0004:00004944       VarUtils.VarR4FromStr
 0004:00004948       VarUtils.VarR8FromStr
 0004:0000494C       VarUtils.VarDateFromStr
 0004:00004950       VarUtils.VarCyFromStr
 0004:00004954       VarUtils.VarBoolFromStr
 0004:00004958       VarUtils.VarBstrFromCy
 0004:0000495C       VarUtils.VarBstrFromDate
 0004:00004960       VarUtils.VarBstrFromBool
 0004:00004964       VarUtils..5
 0004:00004968       Variants.EmptyParam
 0004:00004978       Variants.VarDispProc
 0004:0000497C       Variants.ClearAnyProc
 0004:00004980       Variants.ChangeAnyProc
 0004:00004984       Variants.RefAnyProc
 0004:00004988       Variants..81
 0004:0000498C       Variants.LVarTypes
 0004:00004990       Variants.LVarTypeSync
 0004:000049A8       TypInfo..6
 0004:000049AC       Classes.GlobalNameSpace
 0004:000049B0       Classes.SyncEvent
 0004:000049B4       Classes..95
 0004:000049B8       Classes.IntConstList
 0004:000049BC       Classes.RegGroups
 0004:000049C0       Classes.FindGlobalComponentProcs
 0004:000049C4       Classes.GlobalFixupList
 0004:000049C8       Classes.ThreadLock
 0004:000049E0       t_SQL_types..32
 0004:000049E4       u_Synchronizer..2
 0004:000049E8       u_Synchronizer.GSynchronizerFactory
 0004:000049EC       t_ODBC_Connection..1
 0004:000049F0       t_ODBC_Connection.gEnv
 0004:000049F4       IniFiles..8
 0004:000049F8       u_PStoreTools..3
 0004:000049FC       u_PStoreTools.g_PStore
 0004:00004A00       SevenZip..2
 0004:00004A04       ZLib...
 0004:00005AA4       ZLib...
 0004:00006388       ALZLibExApi..2
 0004:0000638C       u_CompressBinaryData..1
 0004:00006390       u_CompressBinaryData.G7zHolder
 0004:00006394       u_Lang..1
 0004:00006398       u_DBMS_Provider..2
 0005:00000000       System.RaiseListPtr
 0005:00000004       System.InOutRes
 0005:00000008       Classes.GlobalLists
 0005:0000000C       SysInit.TlsLast


Line numbers for t_ETS_Tiles(t_ETS_Tiles.pas) segment .text

   464 0001:00000000

Line numbers for t_ETS_Provider(t_ETS_Provider.pas) segment .text

   233 0001:00000000

Line numbers for i_DBMS_Provider(i_DBMS_Provider.pas) segment .text

   114 0001:00000000

Line numbers for t_types(t_types.pas) segment .text

    17 0001:00000000

Line numbers for t_SQL_types(t_SQL_types.pas) segment .text

   855 0001:00016468   856 0001:00016481   857 0001:0001648B   858 0001:0001648E
   860 0001:0001649F   861 0001:000164A6   863 0001:000164B7   864 0001:000164BE
   866 0001:000164CF   867 0001:000164D6   869 0001:000164E7   870 0001:000164EE
   872 0001:000164FF   873 0001:00016506   875 0001:00016517   876 0001:0001651E
   878 0001:0001652F   879 0001:00016536   881 0001:00016569   882 0001:0001656D
   884 0001:0001658F   885 0001:00016593   887 0001:000165A2   888 0001:000165A6
   890 0001:000165B7   891 0001:000165BA   893 0001:000165BE   895 0001:000165C0
   984 0001:000166D8   985 0001:000166E1   988 0001:000166F1   989 0001:000166F4
   990 0001:000166F8   992 0001:00016708   993 0001:0001670B   994 0001:0001670F
   999 0001:0001673F  1000 0001:00016742  1003 0001:00016746  1005 0001:00016748
  1014 0001:000167B4  1015 0001:000167B6  1019 0001:000167B8  1020 0001:000167BA
  1086 0001:000167BC  1087 0001:000167C7  1088 0001:000167D8  1090 0001:000167DC
  1091 0001:00016804  1099 0001:0001680C  1101 0001:00016836  1102 0001:00016839
  1105 0001:0001683C  1106 0001:0001683F  1109 0001:00016842  1110 0001:00016845
  1113 0001:00016848  1114 0001:0001684B  1117 0001:0001684E  1118 0001:00016851
  1121 0001:00016854  1122 0001:00016857  1127 0001:0001685C  1130 0001:0001685E

Line numbers for t_SQL_types(t_SQL_types.pas) segment .itext

  1155 0002:0000028C

Line numbers for t_ETS_Path(t_ETS_Path.pas) segment .text

    74 0001:00016AA4    93 0001:00016AC8    94 0001:00016ACC    97 0001:00016AD3
    99 0001:00016AE3   104 0001:00016AF2   105 0001:00016AFC   109 0001:00016AFF
   110 0001:00016B07   112 0001:00016B17   113 0001:00016B1D   115 0001:00016B29
   116 0001:00016B2F   117 0001:00016B41   118 0001:00016B57   119 0001:00016B5A
   110 0001:00016B60   123 0001:00016B65   125 0001:00016B7F   128 0001:00016B91
   130 0001:00016B97   131 0001:00016BA8   135 0001:00016BAB   136 0001:00016BB3
   138 0001:00016BC3   139 0001:00016BC9   141 0001:00016BCD   142 0001:00016BCF
   143 0001:00016BE4   144 0001:00016BEE   145 0001:00016BF1   147 0001:00016BF7
   136 0001:00016C00   149 0001:00016C05   152 0001:00016C2C   153 0001:00016C35
   154 0001:00016C3E   155 0001:00016C4A   156 0001:00016C60   165 0001:00016C6C
   166 0001:00016C74   167 0001:00016C78   166 0001:00016C82   168 0001:00016C86
   172 0001:00016C8C   173 0001:00016C98   174 0001:00016C9C   175 0001:00016CA4
   178 0001:00016CA6   179 0001:00016CAB   178 0001:00016CBC   180 0001:00016CC1
   201 0001:00016CC8   202 0001:00016CD6   204 0001:00016CE4   205 0001:00016CEA
   207 0001:00016CF5   211 0001:00016CFA   213 0001:00016CFE   216 0001:00016D09
   218 0001:00016D11   219 0001:00016D18   221 0001:00016D1B   225 0001:00016D24
   226 0001:00016D2A   228 0001:00016D2D   229 0001:00016D2E   230 0001:00016D30
   232 0001:00016D66

Line numbers for t_DBMS_version(t_DBMS_version.pas) segment .text

    99 0001:00016DF4   101 0001:00016E10   104 0001:00016E1A   105 0001:00016E20
   109 0001:00016E3B   110 0001:00016E55   113 0001:00016E59   114 0001:00016E5D
   116 0001:00016E6D   117 0001:00016E71   121 0001:00016E7A   122 0001:00016E92
   124 0001:00016E98   126 0001:00016E9C   127 0001:00016EB4   129 0001:00016EBA
   132 0001:00016EBE   135 0001:00016EE8   136 0001:00016EEE   137 0001:00016EF8
   138 0001:00016EFE   139 0001:00016F04   140 0001:00016F1C   143 0001:00016F24
   144 0001:00016F39   145 0001:00016F42   146 0001:00016F49   149 0001:00016F64
   150 0001:00016F72   151 0001:00016F79   152 0001:00016F85   160 0001:00016F94
   162 0001:00016FB0   163 0001:00016FBF   164 0001:00016FCE   168 0001:00016FD0
   169 0001:00016FDA   170 0001:00016FE8   178 0001:00017010   179 0001:00017021
   180 0001:0001702A   181 0001:00017035   183 0001:0001704E   184 0001:00017052
   185 0001:0001706C   186 0001:0001706E   180 0001:0001706F   189 0001:00017074
   190 0001:00017078   199 0001:00017084   201 0001:0001709E   202 0001:000170AE
   203 0001:000170B2   204 0001:000170BA   205 0001:000170BE   206 0001:000170C2
   209 0001:000170C4   210 0001:000170CD   211 0001:000170D6   213 0001:000170E9
   214 0001:000170ED   215 0001:00017102   216 0001:00017106   217 0001:0001711A
   218 0001:0001711C   210 0001:0001711D   221 0001:00017122   222 0001:00017126
   223 0001:0001712E   224 0001:00017132   225 0001:00017136   233 0001:00017144
   234 0001:00017156   235 0001:0001715F   236 0001:00017168   238 0001:0001717B
   239 0001:0001717F   240 0001:00017193   241 0001:00017195   235 0001:00017196
   244 0001:0001719B   245 0001:0001719F   250 0001:000171AC   251 0001:000171BD
   252 0001:000171C6   253 0001:000171D1   255 0001:000171EA   256 0001:000171EC
   257 0001:000171F2   259 0001:0001720C   260 0001:0001720E   252 0001:0001720F
   263 0001:00017214   264 0001:00017216   273 0001:00017220   275 0001:0001723E
   276 0001:0001724E   277 0001:0001725D   281 0001:0001725F   282 0001:00017269
   283 0001:00017274   284 0001:00017282   288 0001:000172B0   289 0001:000172B9
   290 0001:000172BE   291 0001:000172C3   292 0001:000172CF   294 0001:000172D0
   295 0001:000172D2   310 0001:000172D4   311 0001:000172DA   312 0001:000172DF
   313 0001:000172E7   314 0001:000172EF   315 0001:000172F4   316 0001:000172FC
   318 0001:0001732D

Line numbers for t_DBMS_contenttype(t_DBMS_contenttype.pas) segment .text

    79 0001:000173C0    81 0001:000173CA    84 0001:000173D4    85 0001:000173DA
    89 0001:000173F5    90 0001:0001740C    93 0001:00017410    94 0001:00017412
    96 0001:00017422    97 0001:00017426   100 0001:0001742D   103 0001:00017434
   104 0001:0001743A   105 0001:00017444   106 0001:0001744A   107 0001:00017450
   108 0001:00017468   111 0001:00017470   112 0001:00017485   113 0001:0001748E
   114 0001:00017495   117 0001:000174B0   118 0001:000174BE   119 0001:000174C5
   120 0001:000174D1   128 0001:000174E0   130 0001:000174FC   131 0001:0001750B
   132 0001:00017512   133 0001:00017514   136 0001:00017516   137 0001:00017520
   138 0001:0001752E   146 0001:00017554   147 0001:00017565   148 0001:0001756E
   149 0001:00017579   151 0001:0001758F   152 0001:00017591   153 0001:000175A1
   154 0001:000175A3   148 0001:000175A4   157 0001:000175A9   158 0001:000175AB
   167 0001:000175B4   169 0001:000175CE   170 0001:000175DE   171 0001:000175E2
   172 0001:000175EA   173 0001:000175EE   174 0001:000175F2   177 0001:000175F4
   178 0001:000175FD   179 0001:00017606   181 0001:00017616   182 0001:0001761A
   183 0001:0001762C   184 0001:00017630   185 0001:00017641   186 0001:00017643
   178 0001:00017644   189 0001:00017649   190 0001:0001764D   191 0001:00017655
   192 0001:00017659   193 0001:0001765D   202 0001:0001766C   204 0001:0001768A
   205 0001:0001769A   206 0001:000176A1   207 0001:000176A3   211 0001:000176A5
   212 0001:000176AF   213 0001:000176BA   214 0001:000176C8   217 0001:000176F8
   218 0001:00017701   220 0001:00017709   223 0001:0001770D   224 0001:00017724
   226 0001:00017756

Line numbers for t_DBMS_service(t_DBMS_service.pas) segment .text

    74 0001:00017728    77 0001:0001773A    80 0001:0001773F    81 0001:00017741
    84 0001:00017747    85 0001:0001774B    86 0001:00017753    89 0001:0001775D
    90 0001:0001775F    95 0001:00017768    98 0001:00017776   102 0001:0001777F
   105 0001:00017781   107 0001:000177B0

Line numbers for t_DBMS_Template(t_DBMS_Template.pas) segment .text

   154 0001:000177E4   156 0001:000177ED   157 0001:00017809   158 0001:00017810
   162 0001:00017812   166 0001:00017823   165 0001:00017834   168 0001:00017845
   173 0001:0001784C   174 0001:00017868   177 0001:0001786B   179 0001:0001786E
   182 0001:00017870   184 0001:00017879   185 0001:00017895   186 0001:0001789C
   190 0001:0001789E   194 0001:000178AF   193 0001:000178C0   196 0001:000178D1
   200 0001:000178D8   201 0001:000178DF   202 0001:000178E1   203 0001:000178E5
   206 0001:000178EA   207 0001:000178F1   214 0001:000178F6   215 0001:000178FF
   217 0001:00017902   219 0001:00017931

Line numbers for t_DBMS_Connect(t_DBMS_Connect.pas) segment .text

   168 0001:00000000

Line numbers for odbcsql(ODBCSQL.PAS) segment .text

  1007 0001:00017904  1012 0001:0001790C  1015 0001:00017914  1025 0001:0001791C
  1041 0001:00017924  1050 0001:0001792C  1060 0001:00017934  1074 0001:0001793C
  1090 0001:00017944  1094 0001:0001794C  1097 0001:00017954  1108 0001:0001795C
  1136 0001:00017964  1154 0001:0001796C  1175 0001:00017974  1190 0001:0001797C
  1236 0001:00017984  1240 0001:0001798C  1369 0001:00017994  1370 0001:0001799B
  1491 0001:000179CA

Line numbers for i_StatementHandleCache(i_StatementHandleCache.pas) segment .text

    19 0001:00000000

Line numbers for t_ODBC_Exception(t_ODBC_Exception.pas) segment .text

   107 0001:000182EC   108 0001:000182F8   109 0001:00018303   110 0001:00018316
   126 0001:0001831C   127 0001:00018335   128 0001:0001835A   129 0001:00018368
   130 0001:00018376   131 0001:00018384   132 0001:00018392   133 0001:000183A0
   134 0001:000183AE   135 0001:000183BC   137 0001:000183D5   143 0001:000184C0
   144 0001:000184FF   146 0001:0001850D   147 0001:00018518   150 0001:0001851D
   151 0001:0001852C   152 0001:0001853A   153 0001:00018541   154 0001:00018549
   156 0001:0001854D   159 0001:00018554   162 0001:0001857D   163 0001:00018588
   164 0001:00018593   166 0001:000185DB   170 0001:000185F7   171 0001:000185F8
   173 0001:00018618   175 0001:00018628   184 0001:0001866C   185 0001:00018694
   186 0001:000186B2   188 0001:0001871C

Line numbers for t_ODBC_Buffer(t_ODBC_Buffer.pas) segment .text

   155 0001:00018804   156 0001:0001880A   157 0001:00018818   160 0001:0001881C
   161 0001:00018825   162 0001:00018829   164 0001:00018832   165 0001:00018841
   168 0001:00018848   169 0001:0001884E   170 0001:00018853   171 0001:00018863
   173 0001:00018867   176 0001:0001886C   178 0001:00018875   181 0001:0001887A
   182 0001:00018884   184 0001:00018894   185 0001:00018898   186 0001:0001889C
   191 0001:000188A0   193 0001:000188AC   194 0001:000188B4   195 0001:000188B6
   199 0001:000188B8   200 0001:000188C0   203 0001:000188C9   205 0001:000188CD
   206 0001:000188D3   210 0001:000188D9   211 0001:000188DF   214 0001:000188EE
   221 0001:000188F8   222 0001:000188FF   223 0001:00018901   225 0001:00018906
   227 0001:00018908   228 0001:00018913   229 0001:0001891B   231 0001:00018920
   232 0001:00018928   233 0001:0001892B   234 0001:00018932   235 0001:00018935
   225 0001:00018936   237 0001:0001893B   238 0001:00018944   240 0001:00018946
   244 0001:00018950   245 0001:0001895A   247 0001:0001895C   248 0001:0001896F
   251 0001:00018973   252 0001:00018997   255 0001:0001899B   256 0001:000189A9
   258 0001:000189B3   260 0001:000189BB   265 0001:000189C8   267 0001:000189CE
   268 0001:000189D3   269 0001:000189ED   270 0001:000189F7   272 0001:000189FB
   274 0001:00018A03   275 0001:00018A12   276 0001:00018A1A   277 0001:00018A21
   278 0001:00018A28   281 0001:00018A80   282 0001:00018A86   283 0001:00018A94
   284 0001:00018A98   287 0001:00018A9C   288 0001:00018AA5   290 0001:00018AB4
   293 0001:00018AB9   295 0001:00018ABF   301 0001:00018AC4   303 0001:00018AC9
   304 0001:00018ACF   305 0001:00018ADB   306 0001:00018ADD   307 0001:00018AE5
   304 0001:00018AE8   308 0001:00018AED   314 0001:00018AF4   316 0001:00018AFD
   317 0001:00018B08   318 0001:00018B18   319 0001:00018B1A   320 0001:00018B29
   322 0001:00018B36   317 0001:00018B39   323 0001:00018B3F   329 0001:00018B48
   330 0001:00018B54   331 0001:00018B5A   332 0001:00018B63   333 0001:00018B75
   334 0001:00018B77   335 0001:00018B8C   336 0001:00018BAF   337 0001:00018BB3
   339 0001:00018BB5   332 0001:00018BBC   342 0001:00018BC2   343 0001:00018BC5
   353 0001:00018BCC   354 0001:00018BD8   355 0001:00018BF0   356 0001:00018C0D
   358 0001:00018C20   361 0001:00018C26   364 0001:00018C2C   365 0001:00018C3A
   370 0001:00018C98   371 0001:00018CC5   372 0001:00018CDD   373 0001:00018CFA
   375 0001:00018D0D   378 0001:00018D15   381 0001:00018D1D   382 0001:00018D21
   383 0001:00018D37   385 0001:00018D4F   392 0001:00018DC8   393 0001:00018DF3
   394 0001:00018E0B   395 0001:00018E28   397 0001:00018E39   400 0001:00018E43
   404 0001:00018E4D   407 0001:00018E6E   408 0001:00018E79   409 0001:00018E95
   419 0001:00018F04   420 0001:00018F0F   421 0001:00018F2D   431 0001:00018F9C
   432 0001:00018FA7   433 0001:00018FA9   434 0001:00018FBB   448 0001:0001907A
   454 0001:000190BD   460 0001:00019154   461 0001:00019177   462 0001:0001918F
   463 0001:000191AC   465 0001:000191BD   468 0001:000191C4   472 0001:000191CE
   474 0001:00019217   477 0001:0001922D   480 0001:00019242   483 0001:00019258
   487 0001:0001926A   488 0001:00019278   490 0001:0001927F   493 0001:00019286
   500 0001:0001928D   505 0001:000192A4   508 0001:000192E7   514 0001:00019370
   515 0001:00019393   516 0001:000193AB   517 0001:000193C8   519 0001:000193D9
   522 0001:000193E1   526 0001:000193EB   528 0001:00019434   531 0001:0001944B
   534 0001:00019462   537 0001:00019479   541 0001:00019490   542 0001:0001949E
   544 0001:000194A5   547 0001:000194AD   554 0001:000194B5   559 0001:000194CD
   562 0001:00019510   573 0001:0001959C   574 0001:000195BB   577 0001:000195BF
   578 0001:000195CB   581 0001:000195D9   585 0001:000195E6   588 0001:0001960A
   591 0001:00019619   592 0001:00019624   593 0001:0001962A   596 0001:00019638
   600 0001:0001963E   602 0001:0001965B   603 0001:00019660   604 0001:00019662
   615 0001:00019689   618 0001:00019697   619 0001:0001969E   622 0001:000196A3
   623 0001:000196AE   624 0001:000196BA   625 0001:000196C8   629 0001:000196D2
   631 0001:000196E1   635 0001:000196EA   638 0001:000196F0   641 0001:00019799
   649 0001:000197A5   651 0001:000197AB   655 0001:000197B9   656 0001:000197BF
   659 0001:000197CB   662 0001:000197D7   665 0001:000197E3   670 0001:000197EF
   671 0001:000197F5   674 0001:00019801   677 0001:0001980D   680 0001:00019819
   683 0001:00019825   689 0001:00019831   692 0001:0001983D   695 0001:00019849
   713 0001:00019855   714 0001:0001985B   717 0001:00019867   718 0001:0001987B
   720 0001:00019880   728 0001:00019889   733 0001:000198E9   735 0001:000198EF
   600 0001:000198F7   738 0001:00019901   740 0001:00019907   742 0001:00019912
   744 0001:0001991D   748 0001:0001992C   752 0001:00019931   756 0001:0001993E
   758 0001:00019949   763 0001:00019958   764 0001:0001996E   765 0001:00019970
   766 0001:0001997F   774 0001:000199A3   776 0001:000199B1   763 0001:000199B8
   779 0001:000199BE   780 0001:000199C2   781 0001:000199C6   804 0001:00019A6C
   810 0001:00019A77   811 0001:00019A7D   815 0001:00019A8A   816 0001:00019AA4
   819 0001:00019AA6   821 0001:00019AB9   825 0001:00019AC4   834 0001:00019AE3
   844 0001:00019AF1   846 0001:00019AF6   850 0001:00019AFC   853 0001:00019B0E
   856 0001:00019B14   857 0001:00019B1D   858 0001:00019B2D   861 0001:00019B34
   862 0001:00019B44   865 0001:00019B51   867 0001:00019B5A   868 0001:00019B62
   869 0001:00019B70   871 0001:00019B76   874 0001:00019B86   875 0001:00019B8E
   876 0001:00019B9C   878 0001:00019BA2   879 0001:00019BB2   884 0001:00019BBD
   886 0001:00019BC3   895 0001:00019BE6   898 0001:00019BF4   899 0001:00019BFA
   941 0001:00019C05   815 0001:00019C0C   942 0001:00019C16   945 0001:00019C20
   946 0001:00019C27   947 0001:00019C33   948 0001:00019C42   950 0001:00019C49
   960 0001:00019C50   962 0001:00019C6E   963 0001:00019C7B   964 0001:00019C7D
   967 0001:00019C82   968 0001:00019C93   969 0001:00019CA2   971 0001:00019CA7
   972 0001:00019D06   977 0001:00019D58   978 0001:00019D62   979 0001:00019D69
   980 0001:00019D6E   982 0001:00019D73   983 0001:00019D80   988 0001:00019D8C
   989 0001:00019D93   990 0001:00019D9A   991 0001:00019D9F   993 0001:00019DA6
   994 0001:00019DB2   999 0001:00019DBC  1000 0001:00019DC3  1001 0001:00019DCA
  1002 0001:00019DCF  1004 0001:00019DD7  1005 0001:00019DE3  1013 0001:00019DEC
  1014 0001:00019DF5  1015 0001:00019E0D  1016 0001:00019E2A  1017 0001:00019E3F
  1021 0001:00019E98  1022 0001:00019E9F  1026 0001:00019EA0  1027 0001:00019EA7
  1033 0001:00019EA8  1040 0001:00019ED7  1051 0001:00019EDA  1060 0001:00019EFE
  1063 0001:00019F00  1067 0001:00019F04  1072 0001:00019F17  1075 0001:00019F1C
  1078 0001:00019F20  1083 0001:00019F24  1084 0001:00019F2A  1086 0001:00019F38
  1087 0001:00019F3C  1089 0001:00019F40  1094 0001:00019F44  1095 0001:00019F4A
  1097 0001:00019F58  1098 0001:00019F5C  1100 0001:00019F60  1105 0001:00019F64
  1106 0001:00019F6A  1107 0001:00019F78  1108 0001:00019F7C  1113 0001:00019F80
  1114 0001:00019F86  1115 0001:00019F94  1116 0001:00019F98  1121 0001:00019F9C
  1122 0001:00019FA2  1123 0001:00019FB0  1124 0001:00019FB4  1129 0001:00019FB8
  1130 0001:00019FBE  1131 0001:00019FCC  1132 0001:00019FD0  1134 0001:0001A001

Line numbers for u_Synchronizer(u_Synchronizer.pas) segment .text

   360 0001:0001A534   361 0001:0001A553   362 0001:0001A582   378 0001:0001A5A4
   379 0001:0001A5AD   380 0001:0001A5CE   410 0001:0001A5D4   412 0001:0001A5E2
   413 0001:0001A5E8   414 0001:0001A5F4   415 0001:0001A5F8   416 0001:0001A61A
   421 0001:0001A61C   425 0001:0001A642   456 0001:0001A648   458 0001:0001A653
   459 0001:0001A657   460 0001:0001A663   461 0001:0001A667   462 0001:0001A68A
   467 0001:0001A68C   468 0001:0001A698   469 0001:0001A69C   470 0001:0001A6BF
   474 0001:0001A6C1   475 0001:0001A6DD   543 0001:0001A6E4   548 0001:0001A6E7
   553 0001:0001A6F2   556 0001:0001A6F4   561 0001:0001A6F7   562 0001:0001A702
   567 0001:0001A704   570 0001:0001A708   571 0001:0001A739   572 0001:0001A742
   573 0001:0001A746   575 0001:0001A773   576 0001:0001A777   577 0001:0001A787
   580 0001:0001A7C4   581 0001:0001A7D2   582 0001:0001A7DE   583 0001:0001A7EA
   586 0001:0001A7FC   591 0001:0001A7FF   596 0001:0001A80A   599 0001:0001A80C
   604 0001:0001A80F   609 0001:0001A81A   614 0001:0001A81C   619 0001:0001A81F
   624 0001:0001A82A   627 0001:0001A82C   632 0001:0001A82F   633 0001:0001A83A
   638 0001:0001A83C   641 0001:0001A840   642 0001:0001A871   643 0001:0001A87A
   644 0001:0001A8A5   645 0001:0001A8B1   648 0001:0001A8EC   649 0001:0001A8FA
   650 0001:0001A906   651 0001:0001A912   654 0001:0001A924   659 0001:0001A927
   664 0001:0001A932   667 0001:0001A934   672 0001:0001A937   677 0001:0001A942
   682 0001:0001A944   683 0001:0001A959   684 0001:0001A96C   688 0001:0001A994
   689 0001:0001A996   693 0001:0001A998   694 0001:0001A99E   696 0001:0001A9A1
   697 0001:0001A9A4   701 0001:0001A9A8   702 0001:0001A9AE   704 0001:0001A9B1
   705 0001:0001A9B4   708 0001:0001A9B8   710 0001:0001A9C2   711 0001:0001A9D1
   712 0001:0001A9D5   713 0001:0001A9E3   714 0001:0001A9F1   715 0001:0001A9FF
   716 0001:0001AA0D   717 0001:0001AA13   718 0001:0001AA21   725 0001:0001AA45
   730 0001:0001AA54   731 0001:0001AA63   732 0001:0001AA67   733 0001:0001AA77
   738 0001:0001AA7B   739 0001:0001AA89   740 0001:0001AA97   741 0001:0001AAA5
   742 0001:0001AAB3   747 0001:0001AACB   751 0001:0001AADA   756 0001:0001ABD8
   761 0001:0001ABDB   766 0001:0001ABED   769 0001:0001ABF0   774 0001:0001ABF6
   779 0001:0001AC0D   782 0001:0001AC10   783 0001:0001AC45   784 0001:0001AC49
   785 0001:0001AC55   786 0001:0001AC5E   787 0001:0001AC89   788 0001:0001AC91
   789 0001:0001AC9A   792 0001:0001ACDC   793 0001:0001ACEA   794 0001:0001ACFA
   795 0001:0001AD06   798 0001:0001AD18   803 0001:0001AD1B   808 0001:0001AD2B
   811 0001:0001AD30   816 0001:0001AD33   821 0001:0001AD43   826 0001:0001AD48
   831 0001:0001AD4B   836 0001:0001AD5B   839 0001:0001AD60   844 0001:0001AD63
   845 0001:0001AD73   850 0001:0001AD75   853 0001:0001AD78   854 0001:0001ADAD
   855 0001:0001ADB1   856 0001:0001ADBD   857 0001:0001ADC6   858 0001:0001ADCA
   860 0001:0001ADF7   861 0001:0001ADFB   862 0001:0001AE03   863 0001:0001AE0C
   866 0001:0001AE4C   871 0001:0001AE4F   876 0001:0001AE5F   879 0001:0001AE64
   884 0001:0001AE67   889 0001:0001AE77   995 0001:0001AE7C   996 0001:0001AE9F

Line numbers for u_Synchronizer(u_Synchronizer.pas) segment .itext

   983 0002:00000294   991 0002:000002AE   994 0002:000002CD

Line numbers for u_StatementHandleCache(u_StatementHandleCache.pas) segment .text

    76 0001:0001B1C8    79 0001:0001B1CC    80 0001:0001B1F8    81 0001:0001B201
    82 0001:0001B218    83 0001:0001B229    84 0001:0001B233    85 0001:0001B244
    86 0001:0001B24E    89 0001:0001B28C    90 0001:0001B29D    91 0001:0001B2A8
    93 0001:0001B2B6    94 0001:0001B2C1    95 0001:0001B2CC    96 0001:0001B2D7
    98 0001:0001B2EF   101 0001:0001B302   103 0001:0001B311   104 0001:0001B31C
   107 0001:0001B330   108 0001:0001B333   110 0001:0001B338   112 0001:0001B33D
   117 0001:0001B340   118 0001:0001B34A   119 0001:0001B355   121 0001:0001B363
   122 0001:0001B370   124 0001:0001B374   126 0001:0001B381   129 0001:0001B38D
   132 0001:0001B3A4   134 0001:0001B3B7   137 0001:0001B3BC   138 0001:0001B3C8
   139 0001:0001B3D3   141 0001:0001B3E1   143 0001:0001B3F2   146 0001:0001B3FA
   147 0001:0001B408   148 0001:0001B415   151 0001:0001B41C   153 0001:0001B436
   155 0001:0001B449   158 0001:0001B454   160 0001:0001B461   161 0001:0001B46C
   162 0001:0001B47A   163 0001:0001B485   165 0001:0001B49D   167 0001:0001B4B0
   170 0001:0001B4B8   172 0001:0001B4BF   173 0001:0001B4CA   175 0001:0001B4D8
   177 0001:0001B4F0   179 0001:0001B503   184 0001:0001B508   185 0001:0001B512
   186 0001:0001B51A   187 0001:0001B51E   188 0001:0001B527   189 0001:0001B530
   190 0001:0001B53B   192 0001:0001B548   194 0001:0001B54C   197 0001:0001B554
   198 0001:0001B560   199 0001:0001B56B   200 0001:0001B575   205 0001:0001B57C
   206 0001:0001B594   207 0001:0001B59D   208 0001:0001B5A0   211 0001:0001B5BC
   213 0001:0001B5BF   214 0001:0001B5C7   217 0001:0001B5CC   219 0001:0001B5CF
   220 0001:0001B5DD   224 0001:0001B5E0   225 0001:0001B5E4   226 0001:0001B5E8
   231 0001:0001B5EC   236 0001:0001B5F0   237 0001:0001B5F6   238 0001:0001B5FE
   239 0001:0001B606   240 0001:0001B60E   242 0001:0001B63F

Line numbers for t_ODBC_Connection(t_ODBC_Connection.pas) segment .text

   161 0001:0001B64C   162 0001:0001B65D   163 0001:0001B672   173 0001:0001B678
   174 0001:0001B697   176 0001:0001B69F   178 0001:0001B6AC   179 0001:0001B6BA
   180 0001:0001B6D2   181 0001:0001B6E0   182 0001:0001B6FF   184 0001:0001B70F
   196 0001:0001B732   198 0001:0001B742   200 0001:0001B74B   202 0001:0001B762
   205 0001:0001B787   209 0001:0001B796   211 0001:0001B79E   216 0001:0001B7E0
   217 0001:0001B808   218 0001:0001B810   219 0001:0001B81E   225 0001:0001B85E
   227 0001:0001B86E   230 0001:0001B89C   231 0001:0001B8A5   232 0001:0001B8B0
   233 0001:0001B8C9   242 0001:0001B8D0   243 0001:0001B904   247 0001:0001B914
   249 0001:0001B91C   254 0001:0001B93D   256 0001:0001B963   269 0001:0001B96E
   270 0001:0001B97C   271 0001:0001B989   273 0001:0001B98F   274 0001:0001B997
   276 0001:0001B9B1   277 0001:0001B9C1   278 0001:0001B9CE   279 0001:0001B9F1
   274 0001:0001B9F5   282 0001:0001B9FA   294 0001:0001BA2C   295 0001:0001BA37
   296 0001:0001BA42   297 0001:0001BA4D   309 0001:0001BA9D   310 0001:0001BAA3
   313 0001:0001BACE   315 0001:0001BAF3   316 0001:0001BAF5   317 0001:0001BB03
   318 0001:0001BB11   319 0001:0001BB19   326 0001:0001BB23   327 0001:0001BB2E
   328 0001:0001BB3E   335 0001:0001BB79   343 0001:0001BB88   347 0001:0001BBD0
   348 0001:0001BBD7   367 0001:0001BBD8   368 0001:0001BBDE   369 0001:0001BBE4
   370 0001:0001BBEC   371 0001:0001BBF5   372 0001:0001BC00   374 0001:0001BC05
   383 0001:0001BC08   384 0001:0001BC18   385 0001:0001BC30   386 0001:0001BC3E
   387 0001:0001BC5D   388 0001:0001BC67   389 0001:0001BC73   391 0001:0001BC90
   393 0001:0001BCA6   407 0001:0001BCB0   408 0001:0001BCC3   409 0001:0001BCC8
   411 0001:0001BCD6   413 0001:0001BCEE   415 0001:0001BCF6   416 0001:0001BCF8
   417 0001:0001BCFB   420 0001:0001BCFF   421 0001:0001BD01   422 0001:0001BD08
   426 0001:0001BD0A   439 0001:0001BD2E   442 0001:0001BD3E   448 0001:0001BD5D
   450 0001:0001BD67   451 0001:0001BD73   453 0001:0001BD90   455 0001:0001BDA6
   458 0001:0001BDB4   459 0001:0001BDBD   460 0001:0001BDCC   464 0001:0001BDDC
   465 0001:0001BDE1   468 0001:0001BDE4   469 0001:0001BDED   470 0001:0001BDFC
   543 0001:0001BE0C   544 0001:0001BE15   545 0001:0001BE24   548 0001:0001BE34
   549 0001:0001BE3A   550 0001:0001BE44   551 0001:0001BE49   552 0001:0001BE51
   553 0001:0001BE56   554 0001:0001BE5A   555 0001:0001BE69   556 0001:0001BE76
   563 0001:0001BE88   564 0001:0001BE8F   565 0001:0001BEA5   567 0001:0001BED9
   568 0001:0001BF01   569 0001:0001BF1C   570 0001:0001BF34   571 0001:0001BF4F
   572 0001:0001BF6A   573 0001:0001BF82   575 0001:0001BF98   583 0001:0001BFF4
   584 0001:0001C000   585 0001:0001C018   587 0001:0001C031   588 0001:0001C03C
   590 0001:0001C04F   591 0001:0001C06B   593 0001:0001C07A   594 0001:0001C081
   597 0001:0001C0E0   598 0001:0001C0E3   599 0001:0001C0F2   602 0001:0001C100
   603 0001:0001C103   604 0001:0001C112   607 0001:0001C120   608 0001:0001C123
   609 0001:0001C132   614 0001:0001C140   615 0001:0001C159   618 0001:0001C171
   619 0001:0001C17F   622 0001:0001C1D4   623 0001:0001C1DA   624 0001:0001C1E1
   625 0001:0001C1E9   630 0001:0001C1EC   631 0001:0001C1F2   632 0001:0001C1F8
   633 0001:0001C200   635 0001:0001C204   645 0001:0001C208   646 0001:0001C23A
   648 0001:0001C241   649 0001:0001C243   651 0001:0001C24B   654 0001:0001C25F
   657 0001:0001C263   667 0001:0001C288   669 0001:0001C293   670 0001:0001C2A7
   673 0001:0001C2B4   675 0001:0001C2C3   679 0001:0001C2D5   680 0001:0001C2D7
   688 0001:0001C2D9   689 0001:0001C2DD   690 0001:0001C2DF   693 0001:0001C308
   694 0001:0001C30B   695 0001:0001C317   699 0001:0001C31C   700 0001:0001C33B
   702 0001:0001C343   703 0001:0001C345   706 0001:0001C34A   708 0001:0001C358
   710 0001:0001C367   711 0001:0001C372   714 0001:0001C391   729 0001:0001C3A7
   730 0001:0001C3B2   732 0001:0001C3CD   734 0001:0001C3DE   735 0001:0001C3E6
   737 0001:0001C3ED   742 0001:0001C414   743 0001:0001C437

Line numbers for t_ODBC_Connection(t_ODBC_Connection.pas) segment .itext

   739 0002:000002E4   740 0002:000002F0   741 0002:000002FA

Line numbers for i_ZoomList(i_ZoomList.pas) segment .text

    22 0001:00000000

Line numbers for u_ZoomList(u_ZoomList.pas) segment .text

    52 0001:0001C600    53 0001:0001C604    56 0001:0001C608    57 0001:0001C620
    58 0001:0001C629    59 0001:0001C62E    60 0001:0001C642    65 0001:0001C660
    66 0001:0001C661    67 0001:0001C666    68 0001:0001C66C    69 0001:0001C66F
    79 0001:0001C674    82 0001:0001C699    83 0001:0001C6AB    86 0001:0001C6B5
    88 0001:0001C6BA    89 0001:0001C6CB    91 0001:0001C6CF    94 0001:0001C6EC
    98 0001:0001C711   100 0001:0001C717   101 0001:0001C71A   103 0001:0001C71F
   104 0001:0001C725   105 0001:0001C72B   108 0001:0001C72D   109 0001:0001C730
   111 0001:0001C735   115 0001:0001C73B   119 0001:0001C73F   120 0001:0001C742
   121 0001:0001C747   125 0001:0001C784   126 0001:0001C787   131 0001:0001C788
   134 0001:0001C789   135 0001:0001C78E   136 0001:0001C794   137 0001:0001C79A
   143 0001:0001C79C   145 0001:0001C7BF   146 0001:0001C7CE   148 0001:0001C7D8
   150 0001:0001C828   151 0001:0001C830   152 0001:0001C865   153 0001:0001C869
   154 0001:0001C87C   153 0001:0001C889   159 0001:0001C890   160 0001:0001C89C
   161 0001:0001C8A0   162 0001:0001C8B2   164 0001:0001C8B6   168 0001:0001C8C0
   170 0001:0001C926

Line numbers for u_TileArea(u_TileArea.pas) segment .text

    61 0001:0001CA64    62 0001:0001CA69    64 0001:0001CA74    65 0001:0001CA76
    66 0001:0001CA7C    67 0001:0001CA84    68 0001:0001CA8C    70 0001:0001CA94
    63 0001:0001CA95    72 0001:0001CA9A    75 0001:0001CAA0    92 0001:0001CAAA
    94 0001:0001CAB7    95 0001:0001CAB9    96 0001:0001CAC5    97 0001:0001CAD3
    98 0001:0001CAE2   100 0001:0001CAF1    93 0001:0001CAF2   102 0001:0001CAF7
   109 0001:0001CAFC   110 0001:0001CB00   112 0001:0001CB20   117 0001:0001CB24
   118 0001:0001CB3D   119 0001:0001CB4B   121 0001:0001CB59   122 0001:0001CB68
   123 0001:0001CB7B   125 0001:0001CB85   128 0001:0001CB94   130 0001:0001CBA0
   131 0001:0001CBA6   134 0001:0001CBC8   135 0001:0001CBD2   139 0001:0001CBDB
   145 0001:0001CBEF   147 0001:0001CBF3   148 0001:0001CC0A   149 0001:0001CC2A
   153 0001:0001CC46   154 0001:0001CC5B   155 0001:0001CC7B   157 0001:0001CC93
   164 0001:0001CC98   167 0001:0001CCB8   168 0001:0001CCCA   169 0001:0001CCD2
   170 0001:0001CCFC   172 0001:0001CD04   173 0001:0001CD06   174 0001:0001CD08
   177 0001:0001CD45   178 0001:0001CD57   179 0001:0001CD5B   180 0001:0001CD65
   181 0001:0001CD6C   185 0001:0001CD6E   186 0001:0001CD74   189 0001:0001CD78
   190 0001:0001CD7E   193 0001:0001CD82   194 0001:0001CD88   197 0001:0001CD8C
   198 0001:0001CD92   201 0001:0001CD96   202 0001:0001CD98   206 0001:0001CD9A
   207 0001:0001CD9E   208 0001:0001CDA3   209 0001:0001CDA9   213 0001:0001CDAB
   219 0001:0001CDD0   220 0001:0001CDDC   221 0001:0001CDE5   224 0001:0001CDE9
   226 0001:0001CDF1   227 0001:0001CDFF   229 0001:0001CE03   232 0001:0001CE21
   234 0001:0001CE3B   236 0001:0001CE6E

Line numbers for t_TSS(t_TSS.pas) segment .text

    92 0001:0001CEEC    94 0001:0001CEF6    98 0001:0001CEFF    99 0001:0001CF23
   100 0001:0001CF2F   103 0001:0001CF37   104 0001:0001CF57   105 0001:0001CF63
   108 0001:0001CF6B   109 0001:0001CF86   111 0001:0001CF8F   114 0001:0001CF93
   115 0001:0001CFA2   118 0001:0001CFA7   119 0001:0001CFB9   122 0001:0001CFC0
   123 0001:0001CFC6   124 0001:0001CFCE   125 0001:0001CFD6   131 0001:0001CFDC
   132 0001:0001CFEC   135 0001:0001CFEE   138 0001:0001CFF4   140 0001:0001CFFA
   142 0001:0001D00A   143 0001:0001D011   147 0001:0001D013   149 0001:0001D019
   151 0001:0001D02C   152 0001:0001D033   157 0001:0001D035   158 0001:0001D03C
   163 0001:0001D044   164 0001:0001D04D   165 0001:0001D05D   166 0001:0001D062
   167 0001:0001D072   169 0001:0001D077   170 0001:0001D07A   173 0001:0001D0A0
   174 0001:0001D0AC   175 0001:0001D0BC   176 0001:0001D0C1   177 0001:0001D0D1
   178 0001:0001D0D6   179 0001:0001D0ED   181 0001:0001D0F2   182 0001:0001D0F5
   186 0001:0001D134   193 0001:0001D14D   195 0001:0001D17C

Line numbers for NativeNTAPI(NativeNTAPI.pas) segment .text

   134 0001:0001E414   143 0001:0001E41C   167 0001:0001E422

Line numbers for NTRegistry(NTRegistry.pas) segment .text

    31 0001:0001E424    32 0001:0001E430    33 0001:0001E439    34 0001:0001E449
    35 0001:0001E451    36 0001:0001E464    37 0001:0001E470    38 0001:0001E47C
    39 0001:0001E483    40 0001:0001E48D    43 0001:0001E494    44 0001:0001E49A
    45 0001:0001E49F    46 0001:0001E4AF    48 0001:0001E4B3    61 0001:0001E4B8
    62 0001:0001E4DA    63 0001:0001E4E1    65 0001:0001E4E5    66 0001:0001E4EF
    76 0001:0001E50D    77 0001:0001E515    79 0001:0001E523    81 0001:0001E530
    83 0001:0001E535    92 0001:0001E54C    93 0001:0001E559    94 0001:0001E56E
    95 0001:0001E572   103 0001:0001E58A   107 0001:0001E59D   109 0001:0001E5AE
   122 0001:0001E5D8   123 0001:0001E5FA   124 0001:0001E5FE   125 0001:0001E608
   138 0001:0001E62E   139 0001:0001E632   140 0001:0001E640   142 0001:0001E64D
   151 0001:0001E664   153 0001:0001E677   155 0001:0001E688   157 0001:0001E6E0

Line numbers for u_CryptoTools(u_CryptoTools.pas) segment .text

   426 0001:00000000

Line numbers for u_LsaTools(u_LsaTools.pas) segment .text

    80 0001:00000000

Line numbers for u_PStoreConst(u_PStoreConst.pas) segment .text

    19 0001:00000000

Line numbers for u_PStoreTools(u_PStoreTools.pas) segment .text

   157 0001:0001E878   158 0001:0001E87E   159 0001:0001E88B   160 0001:0001E890
   161 0001:0001E8B9   163 0001:0001E8C9   165 0001:0001E8D6   169 0001:0001E93C
   170 0001:0001E945   172 0001:0001E94E   173 0001:0001E95A   174 0001:0001E95E
   178 0001:0001E967   179 0001:0001E969   182 0001:0001E978   183 0001:0001E97E
   184 0001:0001E984   185 0001:0001E995   187 0001:0001E99A   192 0001:0001E9A0
   193 0001:0001E9AC   194 0001:0001E9D7   197 0001:0001E9DC   198 0001:0001E9E8
   199 0001:0001EA0F   204 0001:0001EA18   205 0001:0001EA30   207 0001:0001EA39
   208 0001:0001EA41   209 0001:0001EA4B   210 0001:0001EA56   211 0001:0001EA60
   214 0001:0001EA80   215 0001:0001EA8E   216 0001:0001EA96   217 0001:0001EAA2
   226 0001:0001EAB4   227 0001:0001EACD   229 0001:0001EAD6   230 0001:0001EADB
   231 0001:0001EAE0   233 0001:0001EAE5   234 0001:0001EAEB   235 0001:0001EAF2
   237 0001:0001EAF9   238 0001:0001EAFD   245 0001:0001EB1D   248 0001:0001EB2B
   254 0001:0001EB4C   256 0001:0001EB57   257 0001:0001EB59   259 0001:0001EB5C
   268 0001:0001EB7B   269 0001:0001EB7F   271 0001:0001EB87   274 0001:0001EB90
   275 0001:0001EB9E   276 0001:0001EBA5   277 0001:0001EBAC   279 0001:0001EBB1
   280 0001:0001EBBD   287 0001:0001EBCC   289 0001:0001EBDB   290 0001:0001EBE0
   292 0001:0001EBE5   294 0001:0001EBEC   296 0001:0001EBF2   297 0001:0001EBFE
   298 0001:0001EC09   299 0001:0001EC1E   300 0001:0001EC32   301 0001:0001EC38
   311 0001:0001EC61   316 0001:0001EC63   317 0001:0001EC6F   318 0001:0001EC7F
   319 0001:0001EC94   321 0001:0001ECA8   331 0001:0001ECD1   332 0001:0001ECD5
   334 0001:0001ECDC   338 0001:0001ECE4   339 0001:0001ECEB   347 0001:0001ECEC
   349 0001:0001ED07   350 0001:0001ED0F   351 0001:0001ED14   352 0001:0001ED19
   353 0001:0001ED27   354 0001:0001ED2D   357 0001:0001ED4F   359 0001:0001ED55
   360 0001:0001ED5B   363 0001:0001ED63   364 0001:0001ED75   365 0001:0001ED7B
   366 0001:0001ED81   368 0001:0001ED89   372 0001:0001ED90   374 0001:0001EDA5
   375 0001:0001EDAA   376 0001:0001EDBD   377 0001:0001EDC3   381 0001:0001EDD4
   384 0001:0001EDEF   385 0001:0001EDF7   387 0001:0001EE0D   394 0001:0001EE40
   395 0001:0001EE50   396 0001:0001EE5F   397 0001:0001EE6D   399 0001:0001EE7E
   400 0001:0001EE8D   401 0001:0001EE93   402 0001:0001EE9A   403 0001:0001EE9D
   406 0001:0001EEA3   407 0001:0001EEA8   408 0001:0001EEB1   412 0001:0001EEBC
   413 0001:0001EEC2   416 0001:0001EEE3   418 0001:0001EEE9   421 0001:0001EF09
   423 0001:0001EF19   428 0001:0001EF4C   429 0001:0001EF4F   430 0001:0001EF5B
   443 0001:0001EF60   444 0001:0001EF6D   445 0001:0001EF74   452 0001:0001EF8C
   457 0001:0001EF94   458 0001:0001EFA0   461 0001:0001EFA2   462 0001:0001EFAE
   466 0001:0001EFB6   467 0001:0001EFC4   468 0001:0001EFD2   469 0001:0001EFE0
   470 0001:0001EFEE   472 0001:0001EFFC   478 0001:0001F01A   485 0001:0001F01F
   487 0001:0001F02D   489 0001:0001F03B   490 0001:0001F049   492 0001:0001F057
   493 0001:0001F065   495 0001:0001F073   496 0001:0001F081   497 0001:0001F08F
   499 0001:0001F09D   500 0001:0001F0AB   502 0001:0001F0B9   514 0001:0001F0FB
   515 0001:0001F100   519 0001:0001F102   527 0001:0001F120   528 0001:0001F124
   530 0001:0001F12E   531 0001:0001F136   543 0001:0001F154   547 0001:0001F28C
   548 0001:0001F293   551 0001:0001F294   552 0001:0001F297   553 0001:0001F29B
   555 0001:0001F29F   567 0001:0001F2A4   568 0001:0001F2C9   569 0001:0001F2D4
   572 0001:0001F2DE   573 0001:0001F2ED   574 0001:0001F2F4   576 0001:0001F2F9
   583 0001:0001F30E   585 0001:0001F312   586 0001:0001F316   589 0001:0001F318
   591 0001:0001F332   593 0001:0001F340   594 0001:0001F350   595 0001:0001F354
   598 0001:0001F35F   604 0001:0001F36E   607 0001:0001F381   609 0001:0001F393
   623 0001:0001F3E0   624 0001:0001F409   625 0001:0001F414   628 0001:0001F41E
   629 0001:0001F42D   630 0001:0001F434   632 0001:0001F439   639 0001:0001F44E
   641 0001:0001F452   642 0001:0001F456   645 0001:0001F45B   646 0001:0001F469
   649 0001:0001F483   650 0001:0001F493   651 0001:0001F497   655 0001:0001F4A2
   656 0001:0001F4A6   657 0001:0001F4AA   661 0001:0001F4B0   667 0001:0001F4C2
   670 0001:0001F4D5   672 0001:0001F4E7   684 0001:0001F534   685 0001:0001F54B
   688 0001:0001F54F   695 0001:0001F570   696 0001:0001F576   697 0001:0001F580
   700 0001:0001F585   701 0001:0001F593   708 0001:0001F5C1   709 0001:0001F5C7
   710 0001:0001F5D1   714 0001:0001F5D8   722 0001:0001F5FE   723 0001:0001F604
   724 0001:0001F60E   728 0001:0001F622   730 0001:0001F634   733 0001:0001F644
   734 0001:0001F64A   735 0001:0001F64F   736 0001:0001F65B   737 0001:0001F661
   739 0001:0001F665   744 0001:0001F668   745 0001:0001F68B

Line numbers for u_PStoreTools(u_PStoreTools.pas) segment .itext

   741 0002:00000304   742 0002:0000031E   743 0002:00000328

Line numbers for u_DBMS_Utils(u_DBMS_Utils.pas) segment .text

    61 0001:0001F6AC    62 0001:0001F6D0    64 0001:0001F6DC    65 0001:0001F6E2
    68 0001:0001F6F6    69 0001:0001F70C    70 0001:0001F71C    72 0001:0001F732
    73 0001:0001F741    75 0001:0001F74C    76 0001:0001F752    78 0001:0001F760
    82 0001:0001F7A8    83 0001:0001F7AE    84 0001:0001F7B7    85 0001:0001F7C3
    87 0001:0001F7F8

Line numbers for u_DBMS_Connect(u_DBMS_Connect.pas) segment .text

   242 0001:0001F81C   258 0001:0001F823   259 0001:0001F835   261 0001:0001F83E
   264 0001:0001F845   267 0001:0001F84C   268 0001:0001F852   283 0001:0001F857
   284 0001:0001F85E   286 0001:0001F86B   288 0001:0001F86F   294 0001:0001F874
   295 0001:0001F878   303 0001:0001F87C   304 0001:0001F89A   311 0001:0001F8B0
   319 0001:0001F8D1   320 0001:0001F8E1   321 0001:0001F8F3   322 0001:0001F901
   324 0001:0001F910   325 0001:0001F91F   326 0001:0001F92D   328 0001:0001F93B
   330 0001:0001F955   334 0001:0001F965   337 0001:0001F976   342 0001:0001F986
   344 0001:0001F990   347 0001:0001F9DC   349 0001:0001F9E8   350 0001:0001FA16
   351 0001:0001FA26   352 0001:0001FA30   353 0001:0001FA35   354 0001:0001FA63
   355 0001:0001FA77   356 0001:0001FA81   357 0001:0001FA86   359 0001:0001FA96
   360 0001:0001FAA0   361 0001:0001FAA5   366 0001:0001FAB5   367 0001:0001FAC1
   368 0001:0001FAC6   370 0001:0001FAD6   371 0001:0001FAE5   372 0001:0001FB01
   373 0001:0001FB06   375 0001:0001FB16   376 0001:0001FB27   377 0001:0001FB29
   379 0001:0001FB39   380 0001:0001FB4A   381 0001:0001FB4C   385 0001:0001FB5C
   386 0001:0001FB6D   389 0001:0001FB6F   390 0001:0001FB75   392 0001:0001FB84
   393 0001:0001FB90   403 0001:0001FC70   410 0001:0001FC7A   412 0001:0001FC84
   413 0001:0001FC8C   416 0001:0001FC9D   419 0001:0001FCA5   423 0001:0001FCB3
   428 0001:0001FCCA   430 0001:0001FCCF   432 0001:0001FCDD   435 0001:0001FCF4
   437 0001:0001FCF9   438 0001:0001FD07   440 0001:0001FD21   442 0001:0001FD26
   443 0001:0001FD30   444 0001:0001FD39   447 0001:0001FD41   448 0001:0001FD4B
   449 0001:0001FD54   452 0001:0001FD5C   454 0001:0001FD64   455 0001:0001FD6E
   456 0001:0001FD76   457 0001:0001FD87   459 0001:0001FD8F   462 0001:0001FD98
   468 0001:0001FDB6   469 0001:0001FDCF   475 0001:0001FDE8   476 0001:0001FE06
   478 0001:0001FE35   484 0001:0001FEA8   486 0001:0001FEC6   487 0001:0001FED1
   488 0001:0001FEE3   489 0001:0001FEEF   490 0001:0001FEFB   492 0001:0001FF09
   494 0001:0001FF17   497 0001:0001FF29   502 0001:0001FF38   506 0001:0001FF46
   487 0001:0001FF47   510 0001:0001FF4C   511 0001:0001FF52   514 0001:0001FF59
   515 0001:0001FF5B   520 0001:0001FF88   523 0001:0001FFA1   524 0001:0001FFB9
   529 0001:0001FFCF   531 0001:0001FFD9   533 0001:0001FFE0   536 0001:0001FFE4
   538 0001:0001FFE6   545 0001:00020014   547 0001:00020021   550 0001:00020024
   553 0001:00020027   556 0001:00020029   588 0001:0002002C   590 0001:0002003D
   592 0001:00020046   593 0001:0002004A   594 0001:0002004C   601 0001:00020051
   602 0001:00020059   604 0001:00020061   607 0001:00020068   613 0001:00020076
   614 0001:0002007D   616 0001:00020088   619 0001:00020092   628 0001:0002009A
   629 0001:000200A0   630 0001:000200A3   631 0001:000200AB   635 0001:000200B6
   640 0001:000200C4   642 0001:000200CC   643 0001:000200D7   646 0001:000200DE
   647 0001:000200E4   648 0001:000200E7   649 0001:000200EF   652 0001:0002010E
   672 0001:00020110   673 0001:0002011E   674 0001:00020125   677 0001:00020127
   678 0001:0002012D   679 0001:00020130   680 0001:00020138   683 0001:0002013C
   692 0001:00020148   696 0001:0002015D   697 0001:00020165   700 0001:00020169
   703 0001:0002016B   732 0001:00020174   733 0001:0002017D   734 0001:00020187
   740 0001:0002018C   743 0001:0002019E   746 0001:000201A0   748 0001:000201C3
   749 0001:000201CA   751 0001:000201E3   753 0001:000201EA   756 0001:00020210
   757 0001:00020216   758 0001:0002021C   760 0001:00020221   761 0001:00020237
   764 0001:0002023C   765 0001:00020242   766 0001:00020248   768 0001:0002024D
   769 0001:00020263   772 0001:00020268   773 0001:0002026B   774 0001:00020272
   777 0001:00020274   778 0001:0002027D   779 0001:00020287   784 0001:0002028C
   785 0001:000202A6   789 0001:000202B0   790 0001:000202B6   792 0001:000202BA
   799 0001:000202DC   801 0001:000202EC   809 0001:00020304   811 0001:0002030A
   817 0001:0002031A   821 0001:00020326   822 0001:0002032A   834 0001:00020354
   835 0001:00020375   836 0001:00020383   837 0001:00020390   840 0001:000203DF
   841 0001:000203E3   842 0001:000203F5   843 0001:000203FC   845 0001:00020400
   849 0001:00020415   851 0001:0002041C   853 0001:00020460   854 0001:0002049F
   860 0001:000204B0   863 0001:000204BC   864 0001:000204C7   868 0001:000204D5
   869 0001:000204E3   870 0001:000204FD   872 0001:0002050C   873 0001:00020526
   874 0001:0002054C   878 0001:0002055E   879 0001:00020580   881 0001:00020582
   885 0001:00020594   886 0001:0002059D   889 0001:000205A7   890 0001:000205B5
   891 0001:000205C0   892 0001:000205DA   895 0001:000205E9   896 0001:00020603
   897 0001:0002061A   898 0001:00020623   900 0001:00020650   902 0001:00020652
   909 0001:00020664   910 0001:00020672   911 0001:0002067D   912 0001:0002069B
   915 0001:000206AE   916 0001:000206C0   917 0001:000206C5   918 0001:000206DF
   919 0001:000206F6   920 0001:000206FF   923 0001:00020711   924 0001:00020723
   925 0001:00020728   926 0001:00020742   927 0001:00020759   928 0001:00020762
   931 0001:00020774   932 0001:00020786   934 0001:00020795   935 0001:0002079C
   938 0001:000207C9   940 0001:000207CB   944 0001:000207DD   945 0001:000207E6
   951 0001:000207F0   952 0001:00020803   953 0001:0002080D   954 0001:00020820
   955 0001:00020827   956 0001:0002083A   957 0001:00020841   958 0001:00020854
   959 0001:0002085B   960 0001:0002086E   962 0001:00020875   964 0001:00020889
   967 0001:0002089C   970 0001:0002097C   972 0001:00020985   993 0001:00020993
   994 0001:0002099D   995 0001:000209A1   997 0001:000209A9  1000 0001:000209B0
  1001 0001:000209B8  1002 0001:000209C0  1003 0001:000209C8  1004 0001:000209CC
  1009 0001:000209D0  1010 0001:000209E8  1013 0001:000209EC  1015 0001:000209F2
  1017 0001:00020A22  1042 0001:00020A30  1046 0001:00020A34  1047 0001:00020A38
  1051 0001:00020A3C  1052 0001:00020A3F  1053 0001:00020A44  1059 0001:00020A48
  1060 0001:00020A61  1061 0001:00020A70  1067 0001:00020A74  1068 0001:00020A7E
  1070 0001:00020A88  1078 0001:00020AB4  1079 0001:00020AE0  1081 0001:00020AE4
  1084 0001:00020AEE  1086 0001:00020AF6  1089 0001:00020B00  1091 0001:00020B0F
  1094 0001:00020B29  1095 0001:00020B53  1096 0001:00020B62  1097 0001:00020B70
  1098 0001:00020B86  1099 0001:00020BB1  1100 0001:00020BB7  1101 0001:00020BD1
  1104 0001:00020BF9  1107 0001:00020C09  1115 0001:00020C70  1116 0001:00020C9C
  1118 0001:00020C9E  1121 0001:00020CAB  1123 0001:00020CB3  1126 0001:00020CBD
  1128 0001:00020CCF  1131 0001:00020CE9  1132 0001:00020CF8  1133 0001:00020D06
  1134 0001:00020D15  1135 0001:00020D25  1137 0001:00020D48  1140 0001:00020D58
  1141 0001:00020D76  1154 0001:00020DD4  1155 0001:00020E0C  1157 0001:00020E1C
  1158 0001:00020E27  1162 0001:00020E2C  1165 0001:00020E36  1167 0001:00020E46
  1168 0001:00020E51  1171 0001:00020E56  1174 0001:00020E66  1175 0001:00020E74
  1178 0001:00020E79  1181 0001:00020E89  1182 0001:00020E97  1185 0001:00020E9C
  1188 0001:00020EAC  1189 0001:00020EBA  1193 0001:00020EBF  1197 0001:00020EE9
  1201 0001:00020F10  1202 0001:00020F1B  1203 0001:00020F43  1204 0001:00020F6B
  1205 0001:00020F93  1206 0001:00020FBB  1209 0001:00020FE3  1210 0001:00020FE8
  1212 0001:00020FED  1213 0001:00020FFB  1215 0001:0002100E  1219 0001:00021021
  1221 0001:00021025  1220 0001:00021028  1225 0001:00021032  1226 0001:00021045
  1229 0001:0002104F  1232 0001:00021058  1234 0001:00021084  1237 0001:00021089
  1240 0001:0002108F  1241 0001:00021097  1243 0001:0002109B  1244 0001:000210A7
  1247 0001:000210AB  1248 0001:000210B1  1253 0001:000210C3  1254 0001:000210C9
  1255 0001:000210D1  1257 0001:000210DF  1258 0001:000210E5  1259 0001:000210ED
  1262 0001:00021103  1267 0001:0002125C  1268 0001:00021260  1382 0001:0002128F

Line numbers for u_ExecuteSQLArray(u_ExecuteSQLArray.pas) segment .text

    65 0001:000214A4    66 0001:000214B2    67 0001:000214C0    68 0001:000214C4
    69 0001:000214CE    70 0001:000214D5    71 0001:000214DE    74 0001:000214E8
    75 0001:000214F1    76 0001:00021505    81 0001:0002150C    82 0001:00021515
    83 0001:0002151E    87 0001:00021524    88 0001:0002152D    89 0001:00021536
    90 0001:0002153B    91 0001:0002153D    93 0001:00021548    95 0001:0002157A

Line numbers for SevenZip(SevenZip.pas) segment .text

   655 0001:000219A0   656 0001:000219B6   657 0001:000219BA   658 0001:000219D8
   723 0001:000219FC   724 0001:00021A22   725 0001:00021A4B   916 0001:00022164
   917 0001:00022170   918 0001:0002218E   919 0001:00022197   922 0001:0002219C
   923 0001:000221A8   924 0001:000221C6   925 0001:000221CF   931 0001:000221D4
   932 0001:000221F0   933 0001:00022202   934 0001:00022206   935 0001:00022229
   936 0001:0002223A   938 0001:00022240   939 0001:00022249   941 0001:0002226C
   944 0001:000222E0   945 0001:000222EE   946 0001:000222F7   947 0001:00022303
   952 0001:00022314   953 0001:00022328   954 0001:00022333   955 0001:0002233B
   956 0001:00022359  1021 0001:0002237C  1022 0001:00022383  1023 0001:00022387
  1024 0001:0002238B  1025 0001:00022394  1026 0001:0002239C  1029 0001:000223A4
  1030 0001:000223B9  1031 0001:000223C2  1032 0001:000223C7  1033 0001:000223CC
  1034 0001:000223D0  1035 0001:000223D4  1036 0001:000223D9  1037 0001:000223DE
  1040 0001:000223FC  1041 0001:0002240A  1042 0001:00022412  1043 0001:0002241E
  1046 0001:00022430  1047 0001:0002243C  1048 0001:00022442  1049 0001:0002245F
  1050 0001:00022469  1053 0001:00022480  1054 0001:0002249B  1055 0001:000224B9
  1058 0001:000224E0  1059 0001:000224E8  1060 0001:000224FA  1065 0001:00022504
  1066 0001:0002251F  1067 0001:00022551  1068 0001:0002255F  1075 0001:000225A7
  1077 0001:000225B7  1080 0001:000225FC  1081 0001:0002261D  1082 0001:00022658
  1085 0001:0002269C  1086 0001:000226B7  1087 0001:000226D4  1091 0001:000226FC
  1092 0001:00022700  1093 0001:0002270F  1096 0001:00022714  1097 0001:00022729
  1098 0001:00022732  1099 0001:00022740  1100 0001:00022746  1101 0001:0002277C
  1103 0001:000227BD  1105 0001:000227CD  1111 0001:0002280C  1112 0001:00022828
  1113 0001:00022832  1114 0001:00022839  1115 0001:00022864  1117 0001:0002286A
  1118 0001:0002287B  1120 0001:00022880  1122 0001:0002288A  1124 0001:00022898
  1125 0001:000228C9  1126 0001:000228DC  1129 0001:00022911  1130 0001:00022913
  1133 0001:00022960  1134 0001:00022963  1135 0001:00022965  1138 0001:0002296C
  1139 0001:00022975  1140 0001:0002297F  1141 0001:0002298F  1142 0001:00022991
  1145 0001:00022998  1146 0001:0002299B  1147 0001:0002299D  1151 0001:000229A4
  1152 0001:000229A7  1153 0001:000229A9  1156 0001:000229B0  1157 0001:000229B6
  1158 0001:000229BC  1159 0001:000229CD  1160 0001:000229CF  1163 0001:000229D4
  1164 0001:000229D7  1165 0001:000229D9  1170 0001:000229E0  1171 0001:000229F8
  1173 0001:000229FE  1174 0001:00022A11  1176 0001:00022A15  1178 0001:00022A1B
  1179 0001:00022A28  1181 0001:00022A2C  1182 0001:00022A3F  1183 0001:00022A43
  1186 0001:00022A50  1187 0001:00022A55  1191 0001:00022A7C  1192 0001:00022A7F
  1193 0001:00022A81  1197 0001:00022A88  1198 0001:00022A8B  1199 0001:00022A8D
  1203 0001:00022A94  1204 0001:00022A9A  1205 0001:00022AA0  1206 0001:00022AA6
  1209 0001:00022AAC  1210 0001:00022AB3  1211 0001:00022AB7  1212 0001:00022AC2
  1213 0001:00022AC4  1216 0001:00022ACC  1217 0001:00022AE7  1218 0001:00022B05
  1221 0001:00022B2C  1222 0001:00022B47  1223 0001:00022B64  1227 0001:00022B8C
  1228 0001:00022BA9  1229 0001:00022BB2  1230 0001:00022BBB  1231 0001:00022BC9
  1232 0001:00022BCF  1233 0001:00022C01  1235 0001:00022C3E  1236 0001:00022C46
  1238 0001:00022C56  1242 0001:00022C98  1243 0001:00022C9E  1244 0001:00022CA4
  1245 0001:00022CAA  1249 0001:00022CB0  1250 0001:00022CC5  1251 0001:00022CCE
  1252 0001:00022CD7  1253 0001:00022CE5  1254 0001:00022CEB  1255 0001:00022D1F
  1257 0001:00022D5E  1258 0001:00022D66  1260 0001:00022D76  1263 0001:00022DB4
  1264 0001:00022DC9  1265 0001:00022DE2  1266 0001:00022DF0  1268 0001:00022E2F
  1270 0001:00022E42  1273 0001:00022E80  1274 0001:00022E87  1275 0001:00022E92
  1276 0001:00022EA2  1281 0001:00022EA8  1282 0001:00022EC3  1283 0001:00022ECE
  1284 0001:00022EDF  1286 0001:00022EE5  1287 0001:00022EEE  1289 0001:00022F11
  1290 0001:00022F21  1293 0001:00022F78  1294 0001:00022F7A  1295 0001:00022F83
  1320 0001:00022F88  1321 0001:00022F8A  1322 0001:00022F93  1327 0001:00022F98
  1328 0001:00022FB0  1329 0001:00022FB9  1330 0001:00022FBC  1331 0001:00022FC3
  1334 0001:00022FE4  1335 0001:00022FF2  1337 0001:00022FF8  1338 0001:00023000
  1340 0001:00023005  1341 0001:00023011  1344 0001:00023020  1345 0001:00023023
  1346 0001:00023025  1349 0001:0002302C  1350 0001:00023037  1351 0001:0002303B
  1352 0001:00023047  1353 0001:00023049  1359 0001:00023050  1360 0001:0002305B
  1361 0001:00023069  1362 0001:0002306D  1363 0001:0002306F  1364 0001:00023071
  1368 0001:00023078  1369 0001:00023083  1370 0001:00023095  1371 0001:00023099
  1372 0001:000230A6  1373 0001:000230A8  1376 0001:000230B0  1377 0001:000230B6
  1378 0001:000230C4  1379 0001:000230C6  1385 0001:000230CC  1386 0001:000230D7
  1387 0001:000230E5  1388 0001:000230E9  1389 0001:000230EB  1390 0001:000230ED
  1409 0001:00023168  1410 0001:00023176  1411 0001:00023182  1412 0001:0002318A
  1413 0001:00023196  1421 0001:000231A8  1422 0001:000231B1  1423 0001:000231C0
  1424 0001:000231CE  1425 0001:000231D5  1426 0001:000231DA  1427 0001:000231E4
  1428 0001:000231EF  1429 0001:000231FD  1430 0001:0002320D  1431 0001:00023218
  1432 0001:0002321E  1433 0001:0002322E  1434 0001:00023232  1435 0001:00023236
  1436 0001:0002323A  1437 0001:00023247  1449 0001:00023250  1450 0001:000232B7
  1452 0001:000232C4  1454 0001:000232F1  1455 0001:000232FC  1456 0001:00023331
  1457 0001:00023340  1460 0001:0002334B  1462 0001:00023370  1464 0001:000233B9
  1465 0001:000233C7  1466 0001:000233CE  1467 0001:000233D3  1468 0001:000233E4
  1469 0001:0002341C  1470 0001:00023425  1471 0001:00023458  1472 0001:0002346A
  1473 0001:0002347C  1474 0001:00023485  1475 0001:0002348E  1476 0001:00023492
  1477 0001:00023496  1478 0001:0002349A  1479 0001:000234AA  1480 0001:000234BD
  1481 0001:000234C8  1460 0001:000234CE  1482 0001:000234DA  1483 0001:0002354C
  1484 0001:00023565  1485 0001:00023574  1486 0001:00023582  1487 0001:0002358C
  1488 0001:00023597  1489 0001:000235A2  1490 0001:000235B2  1492 0001:000235C9
  1494 0001:000235D9  1501 0001:000235FC  1502 0001:00023608  1503 0001:00023616
  1504 0001:0002361B  1505 0001:00023621  1506 0001:0002362D  1507 0001:00023639
  1508 0001:00023644  1509 0001:0002364B  1510 0001:00023652  1511 0001:00023655
  1512 0001:0002365E  1513 0001:00023665  1514 0001:0002366F  1517 0001:00023678
  1518 0001:0002367E  1519 0001:00023686  1522 0001:0002368C  1523 0001:000236A1
  1524 0001:000236AA  1525 0001:000236B9  1526 0001:000236BE  1527 0001:000236C3
  1531 0001:000236E0  1532 0001:000236EB  1534 0001:000236F7  1535 0001:000236FD
  1537 0001:00023712  1538 0001:00023716  1539 0001:00023718  1542 0001:00023720
  1543 0001:0002372E  1544 0001:00023736  1545 0001:0002373E  1546 0001:0002374A
  1549 0001:0002375C  1550 0001:00023768  1551 0001:0002376E  1552 0001:0002378B
  1553 0001:00023795  1559 0001:000237AC  1560 0001:000237B7  1561 0001:000237C4
  1564 0001:00023814  1565 0001:00023819  1569 0001:00023821  1570 0001:00023826
  1574 0001:00023834  1575 0001:00023840  1577 0001:0002384C  1580 0001:00023859
  1581 0001:0002385E  1585 0001:0002386B  1586 0001:00023870  1588 0001:0002387E
  1592 0001:00023889  1593 0001:0002388B  1599 0001:00023894  1600 0001:0002389C
  1601 0001:000238A9  1602 0001:000238B3  1605 0001:000238E7  1606 0001:000238F3
  1609 0001:00023915  1610 0001:00023917  1614 0001:00023920  1615 0001:00023923
  1616 0001:0002392C  1617 0001:00023935  1618 0001:0002393E  1619 0001:00023940
  1624 0001:00023944  1625 0001:0002394C  1626 0001:00023963  1627 0001:00023971
  1629 0001:00023988  1631 0001:00023998  1636 0001:000239A0  1637 0001:000239BB
  1638 0001:000239DD  1639 0001:000239EB  1641 0001:00023A35  1643 0001:00023A45
  1646 0001:00023A8C  1647 0001:00023A95  1648 0001:00023A9F  1649 0001:00023AAF
  1650 0001:00023AB1  1654 0001:00023AB8  1655 0001:00023ABB  1656 0001:00023ABD
  1659 0001:00023AC4  1660 0001:00023ACB  1661 0001:00023AD6  1665 0001:00023ADC
  1666 0001:00023AE2  1667 0001:00023AE8  1668 0001:00023AEE  1675 0001:00023AF4
  1676 0001:00023B1F  1677 0001:00023B39  1678 0001:00023B44  1679 0001:00023B5C
  1682 0001:00023BA8  1683 0001:00023BAE  1684 0001:00023BB4  1685 0001:00023BC5
  1686 0001:00023BC7

Line numbers for SevenZip(SevenZip.pas) segment .itext

  1688 0002:00000340

Line numbers for i_7zHolder(i_7zHolder.pas) segment .text

    17 0001:00000000

Line numbers for u_BaseInterfacedObject(u_BaseInterfacedObject.pas) segment .text

    10 0001:00000000

Line numbers for u_7zHolder(u_7zHolder.pas) segment .text

    76 0001:00023D8C    79 0001:00023D8E    80 0001:00023D94   102 0001:00023D95
   109 0001:00023D98   110 0001:00023DAD   111 0001:00023DB6   121 0001:00023DBA
   123 0001:00023DC1   126 0001:00023DDC   127 0001:00023DE5   131 0001:00023DF0
   132 0001:00023E01   133 0001:00023E0D   136 0001:00023E24   137 0001:00023E2D
   141 0001:00023E38   142 0001:00023E49   145 0001:00023E60   146 0001:00023E6E
   162 0001:00023E72   165 0001:00023E79   166 0001:00023E85   176 0001:00023E94
   177 0001:00023EB3   178 0001:00023EC1   179 0001:00023EE1   181 0001:00023F00
   183 0001:00023F0C   186 0001:00023F40   187 0001:00023F46   188 0001:00023F4E
   209 0001:00023F7F

Line numbers for c_CompressBinaryData(..\vsasas\c_CompressBinaryData.pas) segment .text

    24 0001:00000000

Line numbers for i_BinaryData(..\vsasas\i_BinaryData.pas) segment .text

    17 0001:00000000

Line numbers for ALZLibExApi(ALZLibExApi.pas) segment .text

   309 0001:0002CDF4   310 0001:0002CDF7   311 0001:0002CE00   314 0001:0002CE04
   315 0001:0002CE07   316 0001:0002CE0E   321 0001:0002CE10   322 0001:0002CE17
   324 0001:0002CE25   325 0001:0002CE27   328 0001:0002CE2C   329 0001:0002CE2F
   330 0001:0002CE3D   335 0001:0002CE40   336 0001:0002CE45

Line numbers for ALZLibExApi(ALZLibExApi.pas) segment .itext

   339 0002:00000354

Line numbers for ALZLibEx(ALZLibEx.pas) segment .text

   780 0001:00034320   781 0001:00034326   783 0001:00034328   785 0001:0003432C
   787 0001:00034341   790 0001:00034344   791 0001:0003434A   793 0001:0003434C
   795 0001:00034350   797 0001:0003435A   800 0001:0003436F  1621 0001:00034374
  1622 0001:000343A4  1624 0001:000343A9  1628 0001:000343C1  1631 0001:000343CA
  1632 0001:000343D3  1634 0001:000343DA  1636 0001:000343F2  1638 0001:000343FA
  1639 0001:0003440A  1641 0001:00034415  1626 0001:0003442B  1644 0001:00034431
  1646 0001:00034434  1647 0001:0003443D  1649 0001:00034444  1651 0001:0003445F
  1653 0001:00034467  1644 0001:00034477  1656 0001:0003447A  1657 0001:00034487
  1668 0001:00034490  1669 0001:000344C0  1670 0001:000344CE  1672 0001:000344D0
  1676 0001:000344EB  1679 0001:000344F4  1680 0001:000344FD  1682 0001:00034504
  1684 0001:0003451E  1686 0001:00034526  1687 0001:00034536  1689 0001:00034541
  1691 0001:00034547  1694 0001:00034569  1696 0001:0003456E  1674 0001:00034584
  1700 0001:0003459E  1702 0001:000345B5  1723 0001:000345BC  1724 0001:000345CB
  1726 0001:000345DA  1729 0001:00034614  1730 0001:00034620  1752 0001:0003462C
  1753 0001:0003463B  1755 0001:0003464A  1757 0001:00034665  1758 0001:00034671
  2293 0001:00034678  2294 0001:00034690  2296 0001:000346A9  2297 0001:000346AC
  2300 0001:000346CC  2301 0001:000346E1  2302 0001:000346F8  2304 0001:00034743

Line numbers for ALZLibExGZ(ALZLibExGZ.pas) segment .text

   677 0001:00034778   678 0001:000347AE   680 0001:000347BD   681 0001:000347C1
   682 0001:000347C5   684 0001:000347C9   686 0001:000347E6   687 0001:000347EA
   689 0001:000347EE   691 0001:000347F2   692 0001:00034806   694 0001:0003481A
   696 0001:00034829   698 0001:0003482E   702 0001:0003483D   704 0001:00034851
   700 0001:00034872   707 0001:00034894   709 0001:000348A1   711 0001:000348B5
   713 0001:000348C5   715 0001:000348D5   731 0001:000348E5   717 0001:000348EF
   720 0001:00034907   722 0001:00034917   731 0001:00034927   724 0001:00034931
   727 0001:00034949   730 0001:0003495B   731 0001:0003496B   734 0001:000349A0
   735 0001:000349A3   736 0001:000349B0   752 0001:000349B4   753 0001:000349F3
   755 0001:00034A07   758 0001:00034A1C   763 0001:00034A34   766 0001:00034A49
   767 0001:00034A63   769 0001:00034A6D   771 0001:00034A73   773 0001:00034A87
   776 0001:00034A9C   779 0001:00034ABC   781 0001:00034AC4   783 0001:00034ACA
   787 0001:00034AD0   789 0001:00034ADF   785 0001:00034B05   793 0001:00034B2D
   795 0001:00034B35   797 0001:00034B3B   801 0001:00034B41   803 0001:00034B50
   799 0001:00034B76   807 0001:00034B9E   811 0001:00034BA4   814 0001:00034BBA
   816 0001:00034BDC   819 0001:00034BF1   821 0001:00034BFE   823 0001:00034C0C
   825 0001:00034C19   827 0001:00034C2D   830 0001:00034C42   832 0001:00034C44
   836 0001:00034C53   838 0001:00034C5A   840 0001:00034C8B   843 0001:00034C9A
   845 0001:00034CAD   834 0001:00034CCB   848 0001:00034CE8   851 0001:00034CFE
   853 0001:00034D13   860 0001:00034D44   861 0001:00034D60   862 0001:00034D70
  1300 0001:00034E32

Line numbers for u_BinaryDataByMemStream(..\vsasas\u_BinaryDataByMemStream.pas) segment .text

   100 0001:00000000

Line numbers for u_BinaryData(..\vsasas\u_BinaryData.pas) segment .text

   131 0001:00000000

Line numbers for u_CompressBinaryData(..\vsasas\u_CompressBinaryData.pas) segment .text

    95 0001:00034E18    96 0001:00034E1E    97 0001:00034E2A   128 0001:00034E30
   129 0001:00034E36   130 0001:00034E3B   132 0001:00034E42   133 0001:00034E50
   142 0001:00034E54   143 0001:00034E5A   151 0001:00034E5C   154 0001:00034E77
   168 0001:00034E78   171 0001:00034E8D   183 0001:00034E90   184 0001:00034E9F
   185 0001:00034EA3   186 0001:00034EB2   187 0001:00034EC0   188 0001:00034ECC
   191 0001:00034ED3   194 0001:00034EDB   195 0001:00034EE6   197 0001:00034EF6
   199 0001:00034F06   206 0001:00034F14   207 0001:00034F17   208 0001:00034F21
   215 0001:00034F24   216 0001:00034F27   217 0001:00034F31   229 0001:00034F34
   230 0001:00034F59   232 0001:00034F76   234 0001:00034F7A   235 0001:00034F88
   237 0001:00034FA4   240 0001:00034FA9   245 0001:00034FB3   246 0001:00034FC2
   247 0001:00034FD0   250 0001:00034FDE   263 0001:0003500D   267 0001:00035018
   270 0001:00035028   271 0001:00035037   273 0001:00035047   281 0001:00035057
   292 0001:000350D0   293 0001:000350F8   295 0001:00035115   297 0001:00035119
   298 0001:00035127   300 0001:00035143   303 0001:00035148   308 0001:00035152
   309 0001:00035161   310 0001:0003516F   312 0001:0003517D   314 0001:0003518B
   315 0001:000351AD   318 0001:000351BA   321 0001:000351C5   324 0001:000351D9
   325 0001:000351E8   327 0001:000351FA   329 0001:0003520C   331 0001:0003521C
   361 0001:0003529C   362 0001:000352AF   363 0001:000352C7   364 0001:000352E1
   366 0001:000352E5   367 0001:000352E8   370 0001:000352FD   371 0001:0003530B
   374 0001:0003532E   376 0001:0003533A   378 0001:00035355   384 0001:0003535D
   385 0001:00035370   388 0001:00035376   389 0001:0003539F   395 0001:000353A5
   396 0001:000353B4   399 0001:000353BA   400 0001:000353E3   404 0001:000353E7
   411 0001:00035444   412 0001:00035456   413 0001:00035470   414 0001:0003548A
   421 0001:0003548E   422 0001:0003549D   423 0001:000354A0   425 0001:000354AE
   426 0001:000354BF   427 0001:000354C5   428 0001:000354CB   429 0001:000354CF
   432 0001:000354EB   435 0001:000354F0   436 0001:000354FF   437 0001:00035505
   439 0001:00035513   440 0001:0003552B   441 0001:0003552E   444 0001:00035548
   448 0001:00035554   449 0001:00035563   450 0001:00035574   457 0001:0003557A
   458 0001:00035580   460 0001:0003558E   461 0001:000355A6   462 0001:000355A9
   465 0001:000355C0   467 0001:000355CC   547 0001:00035628   548 0001:0003562A
   553 0001:0003562C   554 0001:00035632   555 0001:00035639   557 0001:0003563E
   558 0001:00035644   560 0001:0003564D   565 0001:00035650   566 0001:00035673

Line numbers for u_CompressBinaryData(..\vsasas\u_CompressBinaryData.pas) segment .itext

   562 0002:0000035C   563 0002:00000376   564 0002:00000380

Line numbers for u_Exif_Parser(u_Exif_Parser.pas) segment .text

    56 0001:000356DC    57 0001:000356DF    58 0001:000356E3    59 0001:000356E4
    60 0001:000356EA    65 0001:000356F0    67 0001:000356F3    68 0001:000356F6
    69 0001:000356F7    71 0001:000356FC    72 0001:000356FF    73 0001:00035700
    75 0001:00035705    76 0001:00035708    77 0001:00035709    78 0001:0003570E
    82 0001:00035714    83 0001:0003571D    84 0001:00035727    85 0001:0003572A
    86 0001:00035735    87 0001:00035738    88 0001:00035742    89 0001:00035745
    90 0001:0003574F    91 0001:00035752    98 0001:00035758    99 0001:00035761
   100 0001:00035765   101 0001:00035767   102 0001:0003576B   104 0001:00035770
   105 0001:00035776   106 0001:00035778   107 0001:0003577E   108 0001:00035780
   109 0001:00035784   113 0001:00035786   114 0001:00035788   102 0001:00035789
   116 0001:0003578E   125 0001:0003579C   126 0001:000357C6   127 0001:000357CA
   128 0001:000357D1   130 0001:000357D8   134 0001:000357E8   135 0001:000357F0
   139 0001:000357F4   145 0001:0003580C   147 0001:00035812   151 0001:0003582B
   153 0001:00035835   156 0001:0003583B   157 0001:00035843   159 0001:00035846
   163 0001:0003584B   166 0001:00035864   167 0001:0003586A   170 0001:0003586E
   171 0001:00035870   172 0001:00035878   173 0001:0003587B   174 0001:00035883
   175 0001:00035886   176 0001:0003588E   177 0001:00035891   178 0001:00035899
   179 0001:0003589C   185 0001:0003589E   189 0001:000358A6   190 0001:000358A8
   191 0001:000358B0   192 0001:000358B3   193 0001:000358BB   194 0001:000358BE
   198 0001:000358C0   202 0001:000358C8   205 0001:000358D0   207 0001:000358D8
   210 0001:000358E8   213 0001:000358EC   215 0001:000358F6   218 0001:00035900
   222 0001:00035904   223 0001:0003590C   225 0001:00035910   226 0001:00035915
   233 0001:0003591B   234 0001:00035929   238 0001:00035932   239 0001:0003594C
   244 0001:00035950   245 0001:0003595D   246 0001:00035971   244 0001:00035972
   250 0001:00035977   251 0001:00035982   255 0001:00035986   257 0001:00035988
   258 0001:00035995   259 0001:000359A1   260 0001:000359A8   268 0001:000359AF
   269 0001:000359B7   270 0001:000359BD   271 0001:000359BF   272 0001:000359C1
   257 0001:000359C2   275 0001:000359C7   279 0001:000359CF   280 0001:000359DD
   283 0001:000359E6   284 0001:00035A00   294 0001:00035A04   295 0001:00035A11
   296 0001:00035A25   294 0001:00035A26   299 0001:00035A2B   300 0001:00035A2D
   301 0001:00035A3A   302 0001:00035A46   303 0001:00035A4F   304 0001:00035A5A
   305 0001:00035A5C   306 0001:00035A5E   300 0001:00035A5F   308 0001:00035A64
   312 0001:00035A68   313 0001:00035A77   316 0001:00035A7F   317 0001:00035A82
   319 0001:00035ADF

Line numbers for u_Tile_Parser(u_Tile_Parser.pas) segment .text

    73 0001:00035AB4    74 0001:00035AD1    75 0001:00035AE1    76 0001:00035AE6
    77 0001:00035AEA    78 0001:00035B06    79 0001:00035B0B    81 0001:00035B0F
    83 0001:00035B55    86 0001:00035B68    89 0001:00035B74    90 0001:00035B77
    91 0001:00035B8B   102 0001:00035B94   108 0001:00035BC4   109 0001:00035BD5
   110 0001:00035BDD   120 0001:00035C77   121 0001:00035C7B   122 0001:00035C9D
   123 0001:00035CA1   126 0001:00035CA9   127 0001:00035CAD   128 0001:00035CCF
   129 0001:00035CD3   132 0001:00035CDB   133 0001:00035CDF   134 0001:00035D01
   135 0001:00035D05   139 0001:00035D0D   140 0001:00035D11   141 0001:00035D33
   142 0001:00035D37   145 0001:00035D3F   146 0001:00035D43   147 0001:00035D65
   148 0001:00035D69   151 0001:00035D71   152 0001:00035D75   153 0001:00035D97
   154 0001:00035D9B   158 0001:00035DA3   160 0001:00035DA7   162 0001:00035DAD
   163 0001:00035DBB   166 0001:00035DD8   169 0001:00035DDF   182 0001:00035E0C
   189 0001:00035E38   191 0001:00035E5C   192 0001:00035E6B   194 0001:00035E75
   197 0001:00035E7D   199 0001:00035EA1   200 0001:00035EB0   202 0001:00035EBA
   206 0001:00035EC2   207 0001:00035ECE   209 0001:00035EDA   212 0001:00035EEA
   213 0001:00035EF9   215 0001:00035F03   217 0001:00035F17   218 0001:00035F2E
   219 0001:00035F39   220 0001:00035F45   224 0001:00035F53   227 0001:00035F5B
   228 0001:00035F7F   231 0001:00035F97   232 0001:00035FBB   235 0001:00035FD3
   236 0001:00035FF7   238 0001:0003600F   239 0001:00036033   240 0001:0003604B
   241 0001:0003606F   245 0001:00036087   246 0001:000360AB   248 0001:000360C3
   249 0001:000360D5   253 0001:000360EB   287 0001:000363E4   288 0001:0003641A
   289 0001:00036426   290 0001:00036436   291 0001:00036438   295 0001:0003643D
   296 0001:0003644C   297 0001:00036450   300 0001:00036460   302 0001:00036468
   306 0001:0003646E   308 0001:00036493   309 0001:00036495   312 0001:0003649A
   319 0001:000364A5   320 0001:000364AD   324 0001:000364B4   331 0001:000364C5
   321 0001:000364C8   334 0001:000364EC   336 0001:000364FC   337 0001:000364FE
   341 0001:00036500   342 0001:00036506   346 0001:00036511   348 0001:00036526
   350 0001:00036537   351 0001:00036539   353 0001:0003663E

Line numbers for u_Lang(u_Lang.pas) segment .text

   671 0001:00036704   672 0001:0003672B   673 0001:0003673F   674 0001:0003674A
   675 0001:00036753   676 0001:00036759   679 0001:0003676C   680 0001:0003677A
   683 0001:00036782   684 0001:00036785   685 0001:0003678D   688 0001:00036795
   689 0001:0003679B   690 0001:0003679E   692 0001:000367AE   693 0001:00036809
   696 0001:00036815   700 0001:00036852   702 0001:00036854   703 0001:00036855
   677 0001:00036858   707 0001:00036884   710 0001:0003691E   711 0001:00036930

Line numbers for u_Lang(u_Lang.pas) segment .itext

   713 0002:00000398

Line numbers for u_DBMS_TileEnum(u_DBMS_TileEnum.pas) segment .text

   116 0001:00036ADC   118 0001:00036AFF   124 0001:00036B07   132 0001:00036B3D
   136 0001:00036B4A   138 0001:00036B57   140 0001:00036B72   141 0001:00036B7D
   143 0001:00036B83   144 0001:00036B91   147 0001:00036BA4   148 0001:00036BB2
   152 0001:00036BC5   153 0001:00036BC7   158 0001:00036BCC   165 0001:00036BDC
   167 0001:00036BF3   168 0001:00036BF9   169 0001:00036BFE   170 0001:00036C03
   174 0001:00036C0B   175 0001:00036C11   177 0001:00036C14   181 0001:00036C21
   184 0001:00036C2E   186 0001:00036C3B   188 0001:00036C56   189 0001:00036C61
   191 0001:00036C67   192 0001:00036C75   195 0001:00036C88   196 0001:00036C96
   200 0001:00036CA9   201 0001:00036CAB   207 0001:00036CAD   210 0001:00036CBD
   216 0001:00036CD2   219 0001:00036CF8   222 0001:00036D02   225 0001:00036D17
   227 0001:00036D1F   229 0001:00036D23   230 0001:00036D2C   233 0001:00036D31
   235 0001:00036D3A   237 0001:00036D41   240 0001:00036D48   241 0001:00036D64
   242 0001:00036D76   243 0001:00036D7A   244 0001:00036D7E   247 0001:00036D83
   248 0001:00036D9E   251 0001:00036DB9   252 0001:00036DC9   256 0001:00036DE5
   257 0001:00036DF5   264 0001:00036E38   278 0001:00036EAC   279 0001:00036ED6
   281 0001:00036EDF   282 0001:00036EE9   283 0001:00036EEF   284 0001:00036EF5
   285 0001:00036EFB   286 0001:00036F01   287 0001:00036F07   288 0001:00036F0D
   289 0001:00036F13   290 0001:00036F19   292 0001:00036F20   293 0001:00036F24
   294 0001:00036F28   295 0001:00036F2D   296 0001:00036F4C   298 0001:00036F64
   300 0001:00036F6C   302 0001:00036F71   303 0001:00036F83   305 0001:00036F8F
   306 0001:00036F97   307 0001:00036F9E   308 0001:00036FA5   311 0001:00037000
   312 0001:0003700E   313 0001:00037015   314 0001:0003701D   315 0001:00037022
   316 0001:0003702A   317 0001:00037036   323 0001:00037048   324 0001:0003705B
   326 0001:00037061   327 0001:00037067   330 0001:0003706C   331 0001:00037078
   332 0001:0003707B   333 0001:0003707F   337 0001:00037084   339 0001:0003708A
   340 0001:00037095   345 0001:0003709A   346 0001:000370AA   347 0001:000370AD
   348 0001:000370B1   354 0001:000370B6   355 0001:000370C2   356 0001:000370C5
   357 0001:000370C9   361 0001:000370CE   362 0001:000370DD   363 0001:000370E2
   364 0001:000370E8   365 0001:000370EC   370 0001:000370F1   372 0001:000370FC
   373 0001:00037107   377 0001:0003710C   379 0001:00037118   384 0001:00037129
   386 0001:00037136   387 0001:0003713A   392 0001:0003713C   394 0001:00037142
   395 0001:00037153   398 0001:00037155   399 0001:0003715B   400 0001:0003715F
   352 0001:00037161   405 0001:0003716B   408 0001:00037175   411 0001:00037183
   413 0001:00037188   414 0001:0003718E   415 0001:00037192   419 0001:00037194
   426 0001:0003719F   430 0001:000371A5   436 0001:000371B2   438 0001:000371BA
   440 0001:000371C7   444 0001:000371CD   445 0001:000371CF   451 0001:000371D5
   452 0001:000371DB   462 0001:000371DF   468 0001:000371EC   469 0001:00037218
   470 0001:0003721C   471 0001:0003722A   472 0001:00037232   473 0001:00037240
   478 0001:00037251   480 0001:00037259   481 0001:0003726D   479 0001:00037278
   484 0001:00037291   487 0001:000372B0   488 0001:000372B5   495 0001:000372EC
   497 0001:0003730B   500 0001:00037319   501 0001:0003731F   503 0001:00037329
   504 0001:00037334   506 0001:0003733E   507 0001:0003734A   509 0001:00037354
   512 0001:00037360   513 0001:00037367   514 0001:0003736F   515 0001:00037377
   521 0001:0003737C   522 0001:0003738B   526 0001:000373A1   527 0001:000373B7
   529 0001:000373D3   531 0001:000373D7   532 0001:0003740B   535 0001:0003744A
   536 0001:00037451   537 0001:00037459   539 0001:00037461   542 0001:000374A4
   543 0001:000374AA   544 0001:000374B3   545 0001:000374BE   546 0001:000374C9
   547 0001:000374D2   548 0001:000374DD   549 0001:000374E8   552 0001:000374EC
   553 0001:000374EF   554 0001:000374F7   557 0001:000374FC   559 0001:000374FF
   560 0001:00037507   566 0001:0003750C   567 0001:0003752F   570 0001:00037533
   575 0001:0003754A   578 0001:00037557   586 0001:000375BC   588 0001:000375C5
   593 0001:000375D2   595 0001:000375E9   597 0001:0003761E   600 0001:00037640
   603 0001:00037662   606 0001:0003767F   609 0001:000376A1   613 0001:000376BC
   615 0001:000376CC   616 0001:000376DA   617 0001:000376E5   619 0001:000376FD
   621 0001:0003770C   623 0001:00037710   625 0001:00037718   626 0001:0003771E
   630 0001:00037728   633 0001:00037730   634 0001:00037737   637 0001:00037753
   638 0001:0003775A   641 0001:00037766   642 0001:0003776B   645 0001:000378A8
   648 0001:000378AF   649 0001:000378B7   651 0001:000378BC   652 0001:000378C3
   654 0001:000378D4   658 0001:000378DB   660 0001:000378EB   663 0001:000378F4
   664 0001:000378F6   672 0001:000378FA   676 0001:00037900   677 0001:00037904
   678 0001:00037907   679 0001:00037909   681 0001:00037938

Line numbers for u_SQLScriptParser(u_SQLScriptParser.pas) segment .text

    49 0001:00037A38    50 0001:00037A5A    51 0001:00037A65    52 0001:00037A6E
    53 0001:00037A93    54 0001:00037A9D    63 0001:00037AC0    65 0001:00037AEF
    67 0001:00037AF6    68 0001:00037B02    69 0001:00037B09    72 0001:00037B0E
    73 0001:00037B26    74 0001:00037B35    77 0001:00037B3F    79 0001:00037B48
    80 0001:00037B60    83 0001:00037B6F    84 0001:00037B79    78 0001:00037B7C
    90 0001:00037B8A    91 0001:00037BA1    92 0001:00037BB1    89 0001:00037BBA
    98 0001:00037BC7    99 0001:00037BE6   100 0001:00037BF6    97 0001:00037C07
   106 0001:00037C12   111 0001:00037C48   112 0001:00037C69   115 0001:00037C73
   116 0001:00037C77   117 0001:00037C84   120 0001:00037C86   122 0001:00037C87
   123 0001:00037C8B   125 0001:00037CA3   126 0001:00037CBB   128 0001:00037CE0
   122 0001:00037CE1   131 0001:00037CE5   132 0001:00037CF2   142 0001:00037D24
   143 0001:00037D44   145 0001:00037D49   148 0001:00037D58   150 0001:00037D62
   151 0001:00037D71   152 0001:00037D7F   155 0001:00037D81   158 0001:00037D84
   160 0001:00037D96   162 0001:00037DA2   166 0001:00037DB5   169 0001:00037DC4
   170 0001:00037DC7   173 0001:00037DD6   175 0001:00037DE6   177 0001:00037E3C

Line numbers for u_DBMS_Template(u_DBMS_Template.pas) segment .text

    64 0001:00037F64    65 0001:00037F90    67 0001:00037F99    69 0001:00037F9C
    70 0001:00037FB7    71 0001:00037FC7    74 0001:00037FE5    75 0001:00037FFF
    78 0001:0003805C    79 0001:0003806A    80 0001:0003806F    81 0001:0003807B
    86 0001:0003808C    88 0001:000380AB    89 0001:000380BE    90 0001:000380C2
    93 0001:000380C7    94 0001:000380CC    95 0001:000380DB    97 0001:000380E9
    99 0001:000380F1   101 0001:000380FD   102 0001:00038101   106 0001:0003810B
   107 0001:00038116   110 0001:0003812A   112 0001:00038139   114 0001:00038144
   116 0001:00038150   117 0001:00038154   120 0001:0003815E   121 0001:00038171
   122 0001:00038184   124 0001:00038197   126 0001:000381A8   127 0001:000381B0
   128 0001:000381B6   129 0001:000381C2   130 0001:000381D0   132 0001:000381FD
   133 0001:00038202   136 0001:00038212   141 0001:0003828C   142 0001:00038297
   144 0001:0003829B   145 0001:0003829E   147 0001:000382A3   150 0001:000382A7
   152 0001:000382C6   157 0001:000382C8   159 0001:000382E4   160 0001:000382F1
   161 0001:000382FD   163 0001:00038309   164 0001:00038310   167 0001:00038334
   169 0001:00038337   170 0001:00038343   173 0001:00038358   175 0001:0003835B
   176 0001:00038365   183 0001:00038378   184 0001:000383A5   185 0001:000383B4
   186 0001:000383C2   188 0001:000383D5   191 0001:00038418   198 0001:000384C7
   200 0001:000384DC   210 0001:000385C4   212 0001:000385ED   214 0001:000385F4
   217 0001:000385FF   221 0001:0003860A   223 0001:00038621   225 0001:0003862F
   226 0001:0003863A   231 0001:00038654   220 0001:0003865D   236 0001:00038668
   240 0001:00038677   243 0001:0003867E   245 0001:00038695   248 0001:000386BE
   247 0001:000386CF   249 0001:000386DA   252 0001:000386DC   242 0001:000386DD
   256 0001:000386E8   260 0001:000386F3   261 0001:000386FE   262 0001:0003870E
   264 0001:0003878E

Line numbers for u_DBMS_Provider(u_DBMS_Provider.pas) segment .text

   546 0001:00038970   547 0001:0003898F   549 0001:000389A9   552 0001:000389CE
   554 0001:00038A02   555 0001:00038A11   558 0001:00038AB0   559 0001:00038AB9
   561 0001:00038AC5   563 0001:00038ACE   565 0001:00038AF6   567 0001:00038B18
   568 0001:00038B44   571 0001:00038B6B   573 0001:00038B71   575 0001:00038B9A
   579 0001:00038BAF   580 0001:00038BB3   582 0001:00038BD2   586 0001:00038BE3
   587 0001:00038BE7   589 0001:00038C0B   593 0001:00038C19   594 0001:00038C1D
   596 0001:00038C39   600 0001:00038C47   601 0001:00038C4B   605 0001:00038C74
   614 0001:00038D3C   616 0001:00038D60   617 0001:00038D64   618 0001:00038D68
   622 0001:00038D6A   623 0001:00038D83   627 0001:00038D89   628 0001:00038D8B
   629 0001:00038D99   630 0001:00038DA6   632 0001:00038DC5   635 0001:00038DD9
   636 0001:00038DE5   652 0001:00038E10   654 0001:00038E48   655 0001:00038E4E
   656 0001:00038E50   659 0001:00038E55   660 0001:00038E5B   661 0001:00038E5D
   664 0001:00038E66   666 0001:00038E6F   667 0001:00038E79   669 0001:00038E82
   672 0001:00038E92   676 0001:00038EAB   678 0001:00038EBF   679 0001:00038ED6
   680 0001:00038ED8   684 0001:00038EDD   686 0001:00038EED   687 0001:00038F04
   690 0001:00038F15   691 0001:00038F23   692 0001:00038F31   693 0001:00038F36
   694 0001:00038F38   698 0001:00038F3D   699 0001:00038F40   700 0001:00038F42
   703 0001:00038F47   704 0001:00038F4B   706 0001:00038F58   707 0001:00038F5C
   719 0001:00038F60   721 0001:00038F66   722 0001:00038F6A   723 0001:00038F6E
   724 0001:00038F74   726 0001:00038F87   727 0001:00038F8E   728 0001:00038F92
   730 0001:00038FA4   731 0001:00038FB2   733 0001:00038FB7   734 0001:00038FB9
   738 0001:00038FBE   744 0001:00038FC4   747 0001:00038FC8   748 0001:00038FCC
   753 0001:00038FD2   754 0001:00038FD6   757 0001:00038FEE   759 0001:00038FF4
   762 0001:00039005   763 0001:0003900B   767 0001:00039014   768 0001:00039029
   769 0001:00039037   770 0001:00039046   771 0001:0003904B   772 0001:0003904D
   777 0001:0003904F   778 0001:00039052   781 0001:00039054   786 0001:0003908C
   788 0001:00039096   789 0001:00039099   792 0001:000390A0   793 0001:000390A6
   795 0001:000390AB   797 0001:000390AE   798 0001:000390B7   800 0001:000390BF
   802 0001:000390C2   809 0001:000390C4   810 0001:000390C7   811 0001:000390C9
   813 0001:000390CE   820 0001:000390D4   822 0001:000390E5   826 0001:000390EE
   829 0001:00039101   833 0001:0003910D   836 0001:00039110   838 0001:00039113
   840 0001:00039117   841 0001:00039120   845 0001:00039122   846 0001:00039129
   852 0001:0003913B   855 0001:00039148   856 0001:0003914F   857 0001:0003915D
   858 0001:0003916B   860 0001:00039185   862 0001:0003919B   869 0001:000391A0
   870 0001:000391CC   872 0001:000391D5   873 0001:000391E2   874 0001:000391E6
   875 0001:000391ED   877 0001:000391F4   878 0001:000391F8   881 0001:000391FC
   882 0001:000391FF   883 0001:00039205   884 0001:0003920B   886 0001:00039212
   887 0001:0003921A   890 0001:00039225   891 0001:0003923C   893 0001:00039253
   894 0001:00039258   895 0001:0003925D   900 0001:00039262   901 0001:0003927A
   903 0001:00039282   904 0001:00039291   906 0001:000392A0   907 0001:000392A7
   912 0001:000392F0   914 0001:000392F6   915 0001:00039307   917 0001:00039315
   919 0001:0003932D   921 0001:0003933D   948 0001:00039348   949 0001:00039358
   950 0001:0003936C   951 0001:00039371   952 0001:00039389   954 0001:000393A1
   955 0001:000393A3   957 0001:000393B8   959 0001:000393FF   961 0001:00039446
   963 0001:00039457   965 0001:000394B0   966 0001:000394B7   971 0001:000394BC
   972 0001:000394CE   973 0001:000394D5   977 0001:000394DA   978 0001:000394E2
   981 0001:000394EA   983 0001:000394EE   987 0001:00039504   989 0001:00039510
   993 0001:00039522   994 0001:0003952F   995 0001:00039564   998 0001:00039579
  1002 0001:00039587  1003 0001:00039596  1004 0001:000395A2  1008 0001:000395B3
  1013 0001:000395C2  1014 0001:000395CB  1016 0001:000395E5  1023 0001:000395ED
  1024 0001:00039605  1027 0001:00039613  1032 0001:0003961F  1039 0001:00039672
  1040 0001:0003967A  1041 0001:00039685  1042 0001:00039693  1043 0001:000396A1
  1044 0001:000396AB  1046 0001:000396C2  1048 0001:000396D3  1049 0001:000396DA
  1053 0001:000396E9  1057 0001:00039700  1058 0001:00039713  1061 0001:00039728
  1062 0001:00039742  1064 0001:00039759  1066 0001:00039789  1070 0001:0003978D
  1071 0001:000397BA  1074 0001:000397F0  1055 0001:00039813  1083 0001:00039833
  1084 0001:0003983E  1088 0001:00039850  1089 0001:0003985D  1090 0001:0003986D
  1091 0001:00039890  1092 0001:000398A7  1093 0001:000398B8  1097 0001:000398C3
  1100 0001:000398D0  1101 0001:000398DB  1105 0001:000398E2  1109 0001:00039942
  1111 0001:00039962  1114 0001:00039990  1119 0001:000399C1  1127 0001:000399F0
  1130 0001:00039A4A  1131 0001:00039A64  1136 0001:00039A7A  1137 0001:00039A94
  1142 0001:00039AB9  1143 0001:00039ACF  1148 0001:00039AE2  1149 0001:00039AF8
  1154 0001:00039B0B  1155 0001:00039B16  1120 0001:00039B18  1160 0001:00039B2B
  1163 0001:00039B36  1164 0001:00039B4D  1166 0001:00039B5B  1168 0001:00039B9B
  1170 0001:00039B9D  1171 0001:00039BC1  1173 0001:00039BCD  1174 0001:00039BD9
  1177 0001:00039BE3  1090 0001:00039BE9  1180 0001:00039C02  1181 0001:00039C0D
  1186 0001:00039C20  1187 0001:00039C32  1188 0001:00039C39  1192 0001:00039C3B
  1193 0001:00039C42  1197 0001:00039DF4  1198 0001:00039DF8  1201 0001:00039DFA
  1202 0001:00039E01  1203 0001:00039E03  1204 0001:00039E0B  1206 0001:00039E0F
  1218 0001:00039E14  1219 0001:00039E43  1221 0001:00039E4A  1222 0001:00039E5A
  1224 0001:00039E68  1226 0001:00039E83  1227 0001:00039E89  1230 0001:00039E93
  1237 0001:00039EB0  1238 0001:00039EB6  1240 0001:00039EC0  1241 0001:00039EC2
  1243 0001:00039ED0  1247 0001:00039EF8  1251 0001:00039F0C  1252 0001:00039F1C
  1255 0001:00039F25  1259 0001:00039F2B  1263 0001:00039F3C  1265 0001:00039F50
  1285 0001:00039F88  1286 0001:00039FEC  1288 0001:00039FF9  1289 0001:0003A00F
  1291 0001:0003A01D  1293 0001:0003A04A  1294 0001:0003A053  1297 0001:0003A05D
  1302 0001:0003A080  1303 0001:0003A089  1305 0001:0003A093  1307 0001:0003A0A5
  1309 0001:0003A0B1  1310 0001:0003A0C3  1313 0001:0003A0D1  1314 0001:0003A0E3
  1318 0001:0003A0EF  1319 0001:0003A0FA  1321 0001:0003A108  1322 0001:0003A10A
  1323 0001:0003A118  1325 0001:0003A147  1328 0001:0003A161  1330 0001:0003A174
  1333 0001:0003A183  1339 0001:0003A18D  1340 0001:0003A194  1343 0001:0003A1A3
  1344 0001:0003A1AA  1348 0001:0003A1B9  1349 0001:0003A1CA  1352 0001:0003A1D6
  1357 0001:0003A1E5  1360 0001:0003A1F8  1362 0001:0003A212  1365 0001:0003A216
  1366 0001:0003A21F  1367 0001:0003A226  1369 0001:0003A235  1370 0001:0003A254
  1373 0001:0003A26E  1375 0001:0003A272  1376 0001:0003A27D  1377 0001:0003A285
  1381 0001:0003A28D  1383 0001:0003A299  1384 0001:0003A2A3  1385 0001:0003A2B1
  1388 0001:0003A2C1  1389 0001:0003A2CB  1390 0001:0003A2D6  1391 0001:0003A2E4
  1392 0001:0003A2EF  1396 0001:0003A2FD  1403 0001:0003A32B  1407 0001:0003A334
  1354 0001:0003A33A  1414 0001:0003A35A  1417 0001:0003A37A  1419 0001:0003A394
  1447 0001:0003A3FC  1448 0001:0003A402  1450 0001:0003A41E  1460 0001:0003A45C
  1461 0001:0003A482  1463 0001:0003A488  1465 0001:0003A48C  1468 0001:0003A49A
  1471 0001:0003A4A6  1475 0001:0003A51D  1481 0001:0003A5DC  1482 0001:0003A5E8
  1483 0001:0003A608  1489 0001:0003A620  1490 0001:0003A62C  1491 0001:0003A64C
  1494 0001:0003A664  1495 0001:0003A66D  1496 0001:0003A684  1499 0001:0003A6D4
  1500 0001:0003A6ED  1502 0001:0003A6F8  1504 0001:0003A706  1506 0001:0003A73E
  1509 0001:0003A7BC  1510 0001:0003A7D8  1512 0001:0003A7E4  1514 0001:0003A7F2
  1516 0001:0003A82B  1517 0001:0003A849  1520 0001:0003A908  1522 0001:0003A910
  1521 0001:0003A921  1524 0001:0003A933  1528 0001:0003A938  1529 0001:0003A945
  1530 0001:0003A95A  1531 0001:0003A962  1534 0001:0003A964  1535 0001:0003A972
  1536 0001:0003A976  1537 0001:0003A989  1538 0001:0003A997  1540 0001:0003A9A0
  1541 0001:0003A9AA  1543 0001:0003A9B1  1548 0001:0003A9C4  1549 0001:0003A9E1
  1555 0001:0003AA2D  1556 0001:0003AA4F  1558 0001:0003AA53  1559 0001:0003AA67
  1560 0001:0003AA77  1565 0001:0003AAB2  1576 0001:0003AB23  1581 0001:0003ACD4
  1582 0001:0003ACD8  1583 0001:0003ACEB  1584 0001:0003ACF9  1586 0001:0003AD20
  1588 0001:0003AD37  1595 0001:0003AD3C  1596 0001:0003AD5A  1600 0001:0003AD7B
  1601 0001:0003AD8E  1602 0001:0003AD9C  1603 0001:0003ADB2  1604 0001:0003ADC4
  1605 0001:0003ADD6  1606 0001:0003ADDA  1613 0001:0003AE42  1603 0001:0003AE43
  1615 0001:0003AE59  1618 0001:0003AE70  1619 0001:0003AE80  1622 0001:0003AFA8
  1624 0001:0003AFAB  1625 0001:0003AFC9  1628 0001:0003AFCC  1629 0001:0003AFD9
  1630 0001:0003AFDD  1632 0001:0003AFEB  1633 0001:0003AFF2  1634 0001:0003B01C
  1643 0001:0003B0B8  1644 0001:0003B0FB  1649 0001:0003B175  1650 0001:0003B17C
  1652 0001:0003B195  1654 0001:0003B199  1657 0001:0003B1B8  1661 0001:0003B231
  1662 0001:0003B241  1666 0001:0003B25B  1668 0001:0003B267  1669 0001:0003B275
  1677 0001:0003B3A8  1678 0001:0003B3D8  1679 0001:0003B3E6  1680 0001:0003B3EC
  1682 0001:0003B3F6  1683 0001:0003B409  1687 0001:0003B41E  1690 0001:0003B42B
  1691 0001:0003B43A  1692 0001:0003B448  1693 0001:0003B452  1697 0001:0003B478
  1698 0001:0003B481  1701 0001:0003B48F  1702 0001:0003B4AE  1703 0001:0003B4BF
  1706 0001:0003B4D7  1711 0001:0003B4F5  1716 0001:0003B51E  1720 0001:0003B52E
  1724 0001:0003B55A  1728 0001:0003B56F  1731 0001:0003B57C  1732 0001:0003B58B
  1733 0001:0003B599  1734 0001:0003B5A3  1744 0001:0003B5C9  1770 0001:0003B6E7
  1772 0001:0003B712  1775 0001:0003B722  1777 0001:0003B74E  1781 0001:0003B763
  1784 0001:0003B770  1785 0001:0003B77F  1786 0001:0003B78D  1787 0001:0003B797
  1799 0001:0003B7BD  1800 0001:0003B7CA  1801 0001:0003B7D2  1802 0001:0003B7E7
  1803 0001:0003B7EB  1804 0001:0003B7FA  1805 0001:0003B7FF  1806 0001:0003B80E
  1807 0001:0003B813  1809 0001:0003B822  1811 0001:0003B83D  1816 0001:0003B859
  1821 0001:0003B882  1825 0001:0003B892  1834 0001:0003B8DF  1836 0001:0003B8E3
  1841 0001:0003BCC8  1842 0001:0003BCFB  1845 0001:0003BD0C  1846 0001:0003BD1E
  1847 0001:0003BD3B  1851 0001:0003BD3F  1852 0001:0003BD51  1853 0001:0003BD55
  1854 0001:0003BD60  1855 0001:0003BD79  1859 0001:0003BD7D  1860 0001:0003BD85
  1863 0001:0003BD87  1869 0001:0003BDD4  1870 0001:0003BE18  1872 0001:0003BE3E
  1900 0001:0003BF85  1901 0001:0003BF8B  1906 0001:0003BFBB  1912 0001:0003BFE2
  1920 0001:0003C300  1921 0001:0003C329  1922 0001:0003C32D  1925 0001:0003C335
  1928 0001:0003C340  1929 0001:0003C348  1930 0001:0003C350  1931 0001:0003C35E
  1932 0001:0003C368  1935 0001:0003C374  1936 0001:0003C382  1937 0001:0003C38D
  1938 0001:0003C397  1939 0001:0003C3A1  1943 0001:0003C3AC  1944 0001:0003C3BA
  1946 0001:0003C3C2  1947 0001:0003C3D9  1950 0001:0003C3E3  1952 0001:0003C3EB
  1955 0001:0003C3FF  1957 0001:0003C40C  1958 0001:0003C41A  1962 0001:0003C424
  1967 0001:0003C448  1968 0001:0003C45F  1969 0001:0003C46C  1970 0001:0003C483
  1971 0001:0003C490  1972 0001:0003C4A7  1973 0001:0003C4B4  1974 0001:0003C4CB
  1975 0001:0003C4D8  1977 0001:0003C4EF  1980 0001:0003C4FC  1983 0001:0003C521
  1984 0001:0003C53D  1985 0001:0003C559  1986 0001:0003C575  1990 0001:0003C582
  1993 0001:0003C5A7  1994 0001:0003C5C3  1995 0001:0003C5DF  1996 0001:0003C5FB
  1997 0001:0003C617  2000 0001:0003C624  2005 0001:0003C648  2006 0001:0003C664
  2007 0001:0003C682  2010 0001:0003C6A0  2014 0001:0003C6AD  2018 0001:0003C6D9
  2022 0001:0003C705  2024 0001:0003C711  2028 0001:0003C73D  2032 0001:0003C747
  2033 0001:0003C75F  2036 0001:0003C769  2038 0001:0003C774  2042 0001:0003C789
  2043 0001:0003C79E  2044 0001:0003C7BF  2047 0001:0003C7D0  2049 0001:0003C7FD
  2051 0001:0003C803  2052 0001:0003C80C  2054 0001:0003C81B  2056 0001:0003C828
  2057 0001:0003C838  2060 0001:0003C850  2063 0001:0003C874  2066 0001:0003C8AF
  2068 0001:0003C8C6  2072 0001:0003C8DB  2073 0001:0003C8F2  2074 0001:0003C926
  2312 0001:0003C93E  2077 0001:0003C948  2079 0001:0003C97A  2081 0001:0003C984
  2082 0001:0003C99A  2084 0001:0003C9A9  2086 0001:0003C9B6  2087 0001:0003C9C6
  2090 0001:0003C9DE  2093 0001:0003CA0B  2097 0001:0003CA57  2100 0001:0003CA6C
  2101 0001:0003CA7F  2103 0001:0003CA92  2105 0001:0003CAB4  2107 0001:0003CABA
  2110 0001:0003CADF  2114 0001:0003CB2B  2117 0001:0003CB40  2118 0001:0003CB53
  2125 0001:0003CB7D  2127 0001:0003CBA1  2129 0001:0003CBA7  2130 0001:0003CBC7
  2133 0001:0003CBDE  2137 0001:0003CC2A  2140 0001:0003CC3F  2157 0001:0003CCC2
  2158 0001:0003CCCD  2163 0001:0003CD05  2173 0001:0003CD56  2176 0001:0003CD83
  2178 0001:0003CD98  2179 0001:0003CDA5  2181 0001:0003CDAB  2186 0001:0003CDC7
  2187 0001:0003CDD2  2189 0001:0003CDE4  2195 0001:0003CDFE  2198 0001:0003CE2B
  2201 0001:0003CE40  2202 0001:0003CE51  2205 0001:0003CE59  2207 0001:0003CE66
  2209 0001:0003CE71  2211 0001:0003CE81  2215 0001:0003CEB7  2223 0001:0003CEE5
  2229 0001:0003CEFF  2231 0001:0003CF2C  2233 0001:0003CF41  2235 0001:0003CF51
  2238 0001:0003CF62  2240 0001:0003CF6F  2241 0001:0003CF7D  2243 0001:0003CF87
  2245 0001:0003CF97  2254 0001:0003CFD6  2260 0001:0003CFF0  2267 0001:0003D039
  2270 0001:0003D04E  2271 0001:0003D05F  2274 0001:0003D066  2276 0001:0003D073
  2277 0001:0003D081  2279 0001:0003D08B  2283 0001:0003D0C0  2284 0001:0003D0CC
  2289 0001:0003D0FB  2290 0001:0003D108  2294 0001:0003D112  2298 0001:0003D148
  2302 0001:0003D17D  2304 0001:0003D18F  2305 0001:0003D19E  2306 0001:0003D1B0
  2307 0001:0003D1C4  2312 0001:0003D1D3  2329 0001:0003DC18  2330 0001:0003DC55
  2332 0001:0003DC62  2333 0001:0003DC78  2337 0001:0003DC86  2339 0001:0003DCAB
  2340 0001:0003DCB4  2342 0001:0003DCBE  2346 0001:0003DCD0  2347 0001:0003DCE2
  2349 0001:0003DCF0  2350 0001:0003DD15  2351 0001:0003DD1E  2365 0001:0003DD2D
  2366 0001:0003DD3D  2367 0001:0003DD48  2369 0001:0003DD56  2371 0001:0003DD79
  2374 0001:0003DD90  2377 0001:0003DD97  2378 0001:0003DDA5  2379 0001:0003DDB0
  2382 0001:0003DDDC  2384 0001:0003DDE1  2388 0001:0003DDFB  2391 0001:0003DE05
  2399 0001:0003DE48  2400 0001:0003DE5A  2401 0001:0003DE6D  2402 0001:0003DE7F
  2405 0001:0003DE92  2407 0001:0003DE9B  2410 0001:0003DEA4  2414 0001:0003DEAB
  2422 0001:0003DED9  2386 0001:0003DEE2  2430 0001:0003DEF5  2432 0001:0003DEFE
  2369 0001:0003DF04  2435 0001:0003DF1D  2440 0001:0003DF3D  2444 0001:0003DF5D
  2446 0001:0003DF77  2471 0001:0003DFEC  2472 0001:0003E027  2473 0001:0003E03D
  2475 0001:0003E047  2476 0001:0003E057  2478 0001:0003E065  2480 0001:0003E083
  2481 0001:0003E089  2484 0001:0003E093  2488 0001:0003E097  2501 0001:0003E0DE
  2502 0001:0003E0E4  2526 0001:0003E0EE  2537 0001:0003E129  2539 0001:0003E130
  2540 0001:0003E133  2543 0001:0003E13B  2544 0001:0003E144  2548 0001:0003E14F
  2549 0001:0003E158  2553 0001:0003E161  2556 0001:0003E169  2557 0001:0003E16B
  2565 0001:0003E179  2567 0001:0003E17F  2575 0001:0003E195  2579 0001:0003E1A2
  2582 0001:0003E1C1  2585 0001:0003E1D5  2587 0001:0003E1E5  2590 0001:0003E1EF
  2596 0001:0003E1FC  2598 0001:0003E202  2599 0001:0003E206  2603 0001:0003E210
  2613 0001:0003E234  2615 0001:0003E243  2616 0001:0003E247  2620 0001:0003E251
  2624 0001:0003E257  2626 0001:0003E260  2627 0001:0003E264  2630 0001:0003E26E
  2632 0001:0003E274  2633 0001:0003E278  2635 0001:0003E282  2641 0001:0003E286
  2646 0001:0003E290  2652 0001:0003E296  2655 0001:0003E2A1  2656 0001:0003E2A3
  2658 0001:0003E2B1  2660 0001:0003E2B7  2668 0001:0003E2D4  2672 0001:0003E2EA
  2673 0001:0003E2EE  2674 0001:0003E30D  2676 0001:0003E30F  2679 0001:0003E323
  2681 0001:0003E333  2684 0001:0003E33A  2686 0001:0003E347  2687 0001:0003E34B
  2691 0001:0003E352  2692 0001:0003E356  2697 0001:0003E35D  2698 0001:0003E363
  2699 0001:0003E367  2703 0001:0003E36E  2704 0001:0003E374  2705 0001:0003E378
  2707 0001:0003E37F  2641 0001:0003E383  2714 0001:0003E39A  2715 0001:0003E3A6
  2717 0001:0003E3B6  2728 0001:0003E414  2730 0001:0003E424  2731 0001:0003E42D
  2732 0001:0003E431  2736 0001:0003E436  2737 0001:0003E446  2739 0001:0003E454
  2741 0001:0003E46B  2742 0001:0003E471  2746 0001:0003E47B  2748 0001:0003E48D
  2750 0001:0003E491  2754 0001:0003E49A  2768 0001:0003E4F3  2770 0001:0003E504
  2772 0001:0003E518  2792 0001:0003E528  2793 0001:0003E57E  2795 0001:0003E58B
  2796 0001:0003E5A1  2798 0001:0003E5AF  2800 0001:0003E5DC  2801 0001:0003E5E5
  2804 0001:0003E5EF  2805 0001:0003E621  2806 0001:0003E62A  2808 0001:0003E634
  2810 0001:0003E646  2811 0001:0003E665  2812 0001:0003E670  2814 0001:0003E67E
  2815 0001:0003E680  2816 0001:0003E68E  2818 0001:0003E6BD  2821 0001:0003E6D7
  2823 0001:0003E6EA  2826 0001:0003E6F9  2832 0001:0003E703  2833 0001:0003E70A
  2836 0001:0003E719  2837 0001:0003E720  2843 0001:0003E72F  2844 0001:0003E740
  2845 0001:0003E747  2847 0001:0003E756  2849 0001:0003E765  2850 0001:0003E76C
  2854 0001:0003E77B  2855 0001:0003E78D  2857 0001:0003E7A0  2858 0001:0003E7B2
  2861 0001:0003E7C5  2863 0001:0003E7CE  2866 0001:0003E7DA  2868 0001:0003E7E1
  2869 0001:0003E7F3  2870 0001:0003E7F8  2872 0001:0003E802  2875 0001:0003E815
  2876 0001:0003E828  2878 0001:0003E836  2879 0001:0003E84A  2881 0001:0003E856
  2884 0001:0003E86D  2886 0001:0003E877  2888 0001:0003E885  2889 0001:0003E88C
  2891 0001:0003E89B  2892 0001:0003E8A1  2895 0001:0003E8A9  2897 0001:0003E8C9
  2898 0001:0003E8D0  2900 0001:0003E8DF  2901 0001:0003E8EF  2905 0001:0003E900
  2906 0001:0003E907  2913 0001:0003E916  2914 0001:0003E928  2916 0001:0003E93B
  2918 0001:0003E947  2921 0001:0003E976  2922 0001:0003E9A1  2926 0001:0003E9AF
  2927 0001:0003E9C1  2929 0001:0003E9D4  2931 0001:0003E9E0  2934 0001:0003EA0F
  2935 0001:0003EA3A  2939 0001:0003EA48  2946 0001:0003EA83  2947 0001:0003EA8E
  2950 0001:0003EAAE  2952 0001:0003EAC8  2960 0001:0003EB84  2961 0001:0003EBA3
  2964 0001:0003EBBE  2968 0001:0003EBD6  2970 0001:0003EBDB  2971 0001:0003EBE9
  2972 0001:0003EBF0  2974 0001:0003EBF5  2975 0001:0003EC0E  2978 0001:0003EC12
  2983 0001:0003EC16  2985 0001:0003EC1F  2987 0001:0003EC2E  2988 0001:0003EC3C
  2990 0001:0003EC5A  2993 0001:0003EC69  2997 0001:0003EC6D  2998 0001:0003EC7A
  3002 0001:0003EC7E  3005 0001:0003EC80  3018 0001:0003ECA8  3019 0001:0003ECDB
  3021 0001:0003ECE5  3022 0001:0003ECF5  3024 0001:0003ED03  3026 0001:0003ED21
  3027 0001:0003ED27  3030 0001:0003ED31  3039 0001:0003ED5D  3040 0001:0003ED63
  3042 0001:0003ED6D  3043 0001:0003ED6F  3045 0001:0003ED7D  3049 0001:0003EDA5
  3053 0001:0003EDB9  3054 0001:0003EDCD  3057 0001:0003EDDD  3061 0001:0003EDE6
  3065 0001:0003EDEF  3067 0001:0003EDF8  3068 0001:0003EDFC  3072 0001:0003EE06
  3075 0001:0003EE13  3076 0001:0003EE15  3077 0001:0003EE23  3079 0001:0003EE4B
  3082 0001:0003EE5F  3083 0001:0003EE6F  3085 0001:0003EE74  3088 0001:0003EE7A
  3094 0001:0003EE8B  3096 0001:0003EE9F  3101 0001:0003EEDC  3102 0001:0003EEED
  3103 0001:0003EEFD  3104 0001:0003EF0B  3106 0001:0003EF20  3109 0001:0003EF34
  3110 0001:0003EF3E  3111 0001:0003EF4C  3112 0001:0003EF54  3113 0001:0003EF5F
  3115 0001:0003EF77  3118 0001:0003EF89  3119 0001:0003EF91  3120 0001:0003EF9C
  3122 0001:0003EFA7  3123 0001:0003EFB4  3125 0001:0003EFC1  3126 0001:0003EFD0
  3133 0001:0003EFE4  3134 0001:0003EFF1  3140 0001:0003F00F  3141 0001:0003F014
  3143 0001:0003F01E  3144 0001:0003F026  3147 0001:0003F030  3148 0001:0003F033
  3149 0001:0003F037  3151 0001:0003F041  3152 0001:0003F049  3155 0001:0003F04C
  3157 0001:0003F052  3160 0001:0003F059  3162 0001:0003F060  3163 0001:0003F068
  3165 0001:0003F06C  3168 0001:0003F070  3169 0001:0003F076  3170 0001:0003F07A
  3175 0001:0003F081  3176 0001:0003F087  3178 0001:0003F08E  3179 0001:0003F096
  3181 0001:0003F09A  3192 0001:0003F0A0  3193 0001:0003F0CB  3197 0001:0003F0D5
  3198 0001:0003F0E0  3200 0001:0003F0EC  3202 0001:0003F0F2  3204 0001:0003F100
  3208 0001:0003F117  3215 0001:0003F17A  3218 0001:0003F186  3219 0001:0003F1A4
  3220 0001:0003F1AA  3222 0001:0003F1EC  3224 0001:0003F1F7  3233 0001:0003F234
  3234 0001:0003F258  3235 0001:0003F264  3236 0001:0003F272  3237 0001:0003F297
  3239 0001:0003F2AB  3243 0001:0003F2BF  3245 0001:0003F2C5  3248 0001:0003F2CF
  3250 0001:0003F2E3  3259 0001:0003F310  3260 0001:0003F334  3261 0001:0003F340
  3262 0001:0003F34E  3263 0001:0003F371  3264 0001:0003F37C  3267 0001:0003F390
  3271 0001:0003F3A4  3273 0001:0003F3AA  3276 0001:0003F3B4  3278 0001:0003F3C9
  3282 0001:0003F3F0  3283 0001:0003F3F3  3293 0001:0003F3F4  3294 0001:0003F42B
  3295 0001:0003F433  3297 0001:0003F441  3298 0001:0003F44E  3300 0001:0003F454
  3302 0001:0003F461  3305 0001:0003F495  3306 0001:0003F4A3  3307 0001:0003F4B3
  3308 0001:0003F4B9  3310 0001:0003F4D3  3314 0001:0003F4DC  3315 0001:0003F4F0
  3317 0001:0003F4FF  3320 0001:0003F507  3323 0001:0003F50D  3324 0001:0003F513
  3325 0001:0003F527  3327 0001:0003F539  3329 0001:0003F541  3332 0001:0003F554
  3334 0001:0003F564  3340 0001:0003F618  3342 0001:0003F645  3345 0001:0003F669
  3346 0001:0003F671  3347 0001:0003F67F  3348 0001:0003F685  3349 0001:0003F696
  3350 0001:0003F6A2  3352 0001:0003F6BC  3356 0001:0003F6CC  3357 0001:0003F6D0
  3365 0001:0003F754  3423 0001:0003F763  3425 0001:0003F76C  3427 0001:0003F783
  3429 0001:0003F797  3431 0001:0003F79D  3432 0001:0003F7B2  3434 0001:0003F7B8
  3435 0001:0003F7D1  3437 0001:0003F7D7  3438 0001:0003F7F0  3440 0001:0003F7F6
  3441 0001:0003F80F  3443 0001:0003F815  3444 0001:0003F82E  3446 0001:0003F834
  3447 0001:0003F84D  3449 0001:0003F853  3450 0001:0003F86C  3452 0001:0003F872
  3453 0001:0003F88B  3455 0001:0003F891  3456 0001:0003F8AA  3458 0001:0003F8B0
  3461 0001:0003F8C9  3466 0001:0003F8E2  3468 0001:0003F8E8  3469 0001:0003F8FD
  3471 0001:0003F903  3472 0001:0003F918  3474 0001:0003F91E  3475 0001:0003F92E
  3476 0001:0003F947  3477 0001:0003F95C  3479 0001:0003F962  3482 0001:0003F977
  3483 0001:0003F987  3484 0001:0003F9A0  3491 0001:0003F9B5  3493 0001:0003F9C5
  3495 0001:0003F9CB  3496 0001:0003F9DD  3498 0001:0003F9E3  3501 0001:0003F9F9
  3506 0001:0003FA0F  3508 0001:0003FA15  3511 0001:0003FA27  3516 0001:0003FA37
  3524 0001:0003FABC  3525 0001:0003FAE1  3526 0001:0003FAE3  3527 0001:0003FAED
  3529 0001:0003FAF1  3531 0001:0003FAF9  3534 0001:0003FB25  3539 0001:0003FB61
  3543 0001:0003FB8A  3546 0001:0003FB8E  3552 0001:0003FBB5  3562 0001:0003FC44
  3563 0001:0003FC6E  3565 0001:0003FC76  3567 0001:0003FC83  3580 0001:0003FD4B
  3581 0001:0003FD53  3582 0001:0003FD5B  3585 0001:0003FD72  3586 0001:0003FD7F
  3590 0001:0003FD9A  3591 0001:0003FDA7  3595 0001:0003FDBE  3596 0001:0003FDCB
  3602 0001:0003FDD9  3616 0001:0003FED8  3628 0001:00040110  3630 0001:0004015B
  3632 0001:00040161  3638 0001:00040171  3645 0001:0004017F  3646 0001:00040183
  3647 0001:00040185  3651 0001:0004018A  3658 0001:000401E7  3659 0001:000401F0
  3660 0001:000401F6  3664 0001:00040229  3665 0001:0004022B  3674 0001:000402E4
  3676 0001:0004032B  3677 0001:00040338  3678 0001:0004035A  3679 0001:00040362
  3682 0001:0004036A  3685 0001:0004037A  3691 0001:000403DC  3692 0001:000403DE
  3705 0001:00040488  3707 0001:000404C4  3709 0001:000404D1  3710 0001:000404DB
  3711 0001:000404E6  3712 0001:000404E9  3714 0001:000404F5  3715 0001:000404F8
  3722 0001:000404FB  3723 0001:00040512  3725 0001:0004051C  3726 0001:00040533
  3729 0001:0004053D  3732 0001:00040542  3734 0001:0004055C  3735 0001:0004056B
  3736 0001:00040580  3737 0001:0004058E  3740 0001:000405A1  3741 0001:000405A4
  3742 0001:000405AA  3743 0001:000405B0  3746 0001:000405B9  3747 0001:000405BE
  3751 0001:000405C6  3752 0001:000405CC  3755 0001:000405DF  3765 0001:0004060B
  3776 0001:00040637  3787 0001:00040675  3788 0001:0004067B  3791 0001:00040680
  3792 0001:0004068B  3794 0001:0004069F  3795 0001:000406A5  3796 0001:000406B3
  3798 0001:000406BD  3735 0001:000406C0  3798 0001:000406C9  3734 0001:000406CC
  3804 0001:000406D7  3808 0001:000406DD  3810 0001:000406E1  3822 0001:00040730
  3825 0001:00040767  3827 0001:00040771  3829 0001:00040783  3830 0001:00040785
  3834 0001:0004078A  3835 0001:0004079A  3838 0001:000407A7  3841 0001:000407DE
  3843 0001:000407EC  3844 0001:000407EE  3848 0001:000407F3  3851 0001:00040800
  3853 0001:00040812  3854 0001:00040814  3858 0001:00040819  3863 0001:00040824
  3868 0001:000408AA  3869 0001:000408AC  3910 0001:00040B74  3912 0001:00040BDD
  3913 0001:00040BE7  3914 0001:00040BED  3915 0001:00040BF1  3917 0001:00040BF6
  3921 0001:00040C04  3923 0001:00040C0A  3929 0001:00040C1A  3935 0001:00040C28
  3939 0001:00040C2C  3942 0001:00040C3A  3943 0001:00040C3E  3944 0001:00040C42
  3947 0001:00040C47  3950 0001:00040C4B  3952 0001:00040C51  3958 0001:00040C64
  3965 0001:00040C75  3966 0001:00040C7C  3974 0001:00040C9B  3978 0001:00040CA5
  3980 0001:00040CAB  3988 0001:00040CCA  3992 0001:00040CD4  3993 0001:00040CDA
  3994 0001:00040CDE  3998 0001:00040CE3  4000 0001:00040CEE  4002 0001:00040D07
  4004 0001:00040D0D  4005 0001:00040D0F  4008 0001:00040D16  4015 0001:00040D27
  4020 0001:00040D33  4021 0001:00040D3B  4023 0001:00040D3F  4026 0001:00040D47
  4029 0001:00040D4D  4031 0001:00040D58  4033 0001:00040D60  4035 0001:00040D68
  4038 0001:00040D6A  4039 0001:00040D6E  4041 0001:00040D73  4044 0001:00040D75
  4046 0001:00040D7D  4051 0001:00040D96  4052 0001:00040DAB  4053 0001:00040DC3
  4055 0001:00040DD5  4058 0001:00040DEF  4079 0001:00040F52  4081 0001:00040F5A
  4085 0001:00040F6A  4092 0001:00040F77  4115 0001:00041125  4120 0001:00041132
  4134 0001:00041257  4139 0001:00041264  4142 0001:00041288  4149 0001:00041326
  4151 0001:00041330  4152 0001:00041342  4153 0001:00041362  4155 0001:00041386
  4159 0001:000413DA  4163 0001:000413F6  4168 0001:00041429  4177 0001:000414D6
  4179 0001:000414DC  4185 0001:0004152E  4186 0001:00041532  4195 0001:00041918
  4197 0001:00041949  4208 0001:000419A6  4224 0001:000419F8  4225 0001:00041A61
  4228 0001:00041A65  4229 0001:00041A72  4230 0001:00041A85  4231 0001:00041A90
  4233 0001:00041A98  4235 0001:00041A9C  4240 0001:00041AA9  4242 0001:00041AAF
  4243 0001:00041ABC  4244 0001:00041AC4  4248 0001:00041AD3  4249 0001:00041AE0
  4250 0001:00041AE8  4253 0001:00041AF5  4259 0001:00041B1C  4261 0001:00041B24
  4267 0001:00041B37  4275 0001:00041B48  4276 0001:00041B4E  4277 0001:00041B52
  4280 0001:00041B57  4283 0001:00041B60  4285 0001:00041B70  4287 0001:00041B7E
  4290 0001:00041B96  4294 0001:00041BBE  4296 0001:00041BCF  4297 0001:00041BE2
  4299 0001:00041BEF  4301 0001:00041C18  4303 0001:00041C1D  4306 0001:00041C5E
  4313 0001:00041C81  4314 0001:00041C91  4315 0001:00041CB8  4318 0001:00041CCA
  4321 0001:00041CDA  4323 0001:00041CDE  4325 0001:00041D0D  4328 0001:00041D1F
  4331 0001:00041D31  4334 0001:00041D40  4337 0001:00041D4F  4343 0001:00041D5C
  4347 0001:00041D9D  4360 0001:00042090  4362 0001:00042100  4364 0001:00042106
  4370 0001:00042119  4377 0001:0004212A  4378 0001:00042130  4379 0001:00042134
  4383 0001:00042139  4385 0001:0004213F  4391 0001:00042152  4397 0001:00042163
  4399 0001:00042169  4400 0001:00042178  4401 0001:0004217E  4402 0001:00042184
  4410 0001:000421A3  4414 0001:000421AD  4415 0001:000421B3  4416 0001:000421B7
  4420 0001:000421BC  4422 0001:000421C6  4423 0001:000421CA  4427 0001:000421CF
  4434 0001:00042240  4436 0001:00042246  4439 0001:00042250  4445 0001:000422AD
  4446 0001:000422B1  4455 0001:00042370  4456 0001:00042394  4457 0001:000423A0
  4458 0001:000423AE  4459 0001:000423D3  4461 0001:000423E7  4465 0001:000423FB
  4467 0001:00042401  4470 0001:0004240B  4472 0001:0004241F  4481 0001:0004244C
  4482 0001:00042470  4483 0001:0004247C  4484 0001:0004248A  4486 0001:000424AD
  4487 0001:000424B8  4490 0001:000424CC  4494 0001:000424E0  4496 0001:000424E6
  4499 0001:000424F0  4501 0001:00042505  4504 0001:0004252C  4505 0001:0004252F
  4506 0001:00042533  4508 0001:0004253D  4509 0001:00042545  4512 0001:00042548
  4513 0001:0004254B  4514 0001:0004254F  4516 0001:00042559  4517 0001:00042561
  4520 0001:00042564  4521 0001:0004256E  4522 0001:0004257C  4523 0001:0004258A
  4525 0001:000425B8  4527 0001:000425CE  4535 0001:000425D8  4536 0001:000425E4
  4537 0001:000425EC  4538 0001:000425F4  4539 0001:000425F6  4543 0001:000425F8
  4544 0001:00042603  4548 0001:0004261A  4551 0001:00042620  4554 0001:0004262B
  4556 0001:0004263C  4557 0001:0004263E  4566 0001:00042648  4567 0001:00042652
  4569 0001:0004265A  4571 0001:0004265E  4572 0001:00042663  4573 0001:00042668
  4576 0001:00042675  4577 0001:0004267F  4578 0001:00042688  4579 0001:00042692
  4580 0001:00042699  4582 0001:0004269F  4591 0001:000426A4  4593 0001:000426BC
  4599 0001:000426D2  4601 0001:000426D6  4605 0001:000426DC  4608 0001:000426EA
  4614 0001:00042700  4617 0001:00042708  4618 0001:00042711  4619 0001:0004271B
  4622 0001:00042720  4623 0001:00042729  4624 0001:00042733  4633 0001:00042738
  4635 0001:00042750  4636 0001:00042766  4638 0001:0004276A  4642 0001:00042770
  4644 0001:0004277E  4646 0001:00042794  4649 0001:0004279C  4650 0001:000427A2
  4651 0001:000427B1  4652 0001:000427B9  4653 0001:000427C0  4656 0001:000427C4
  4657 0001:000427CA  4658 0001:000427D2  4659 0001:000427DA  4662 0001:000427E0
  4663 0001:000427E6  4664 0001:000427EA  4665 0001:000427F2  4666 0001:000427F5
  4667 0001:000427FA  4668 0001:00042800  4669 0001:00042804  4670 0001:00042808
  4671 0001:0004280C  4673 0001:00042810  4674 0001:00042816  4675 0001:0004281C
  4676 0001:00042822  4678 0001:00042828  4687 0001:0004282C  4688 0001:0004283E
  4689 0001:00042847  4692 0001:00042849  4694 0001:00042857  4695 0001:00042863
  4698 0001:00042867  4703 0001:0004286C  4705 0001:00042875  4707 0001:0004287B
  4708 0001:0004288E  4709 0001:00042892  4710 0001:00042894  4712 0001:00042899
  4715 0001:000428A3  4716 0001:000428A5  4721 0001:000428AA  4723 0001:000428B7
  4724 0001:000428BD  4725 0001:000428BF  4729 0001:000428C4  4732 0001:000428D9
  4736 0001:000428E1  4737 0001:000428F3  4741 0001:000428FB  4742 0001:00042908
  4746 0001:0004291A  4748 0001:0004292C  4749 0001:0004293A  4751 0001:00042947
  4752 0001:00042961  4754 0001:00042976  4757 0001:00042997  4761 0001:0004299C
  4768 0001:000429B3  4773 0001:000429B7  4774 0001:000429CB  4777 0001:000429D4
  4779 0001:000429D7  4780 0001:000429DC  4781 0001:000429E1  4782 0001:000429E9
  4792 0001:000429EC  4793 0001:00042A3A  4797 0001:00042A4F  4801 0001:00042AA1
  4802 0001:00042AAC  4803 0001:00042ABA  4804 0001:00042ABC  4805 0001:00042ACA
  4807 0001:00042AF9  4810 0001:00042B13  4812 0001:00042B26  4813 0001:00042B31
  4816 0001:00042B3B  4822 0001:00042B41  4824 0001:00042B4C  4826 0001:00042B5D
  4827 0001:00042B6B  4829 0001:00042B8E  4837 0001:00042B93  4839 0001:00042BA4
  4840 0001:00042BAF  4841 0001:00042BB6  4845 0001:00042BC0  4847 0001:00042BD3
  4850 0001:00042BDE  4853 0001:00042BFC  4854 0001:00042C05  4855 0001:00042C10
  4859 0001:00042C1A  4860 0001:00042C28  4862 0001:00042C4B  4865 0001:00042C50
  4867 0001:00042C5F  4868 0001:00042C6A  4869 0001:00042C71  4875 0001:00042C7B
  4876 0001:00042CA1  4877 0001:00042CCE  4878 0001:00042CF4  4879 0001:00042D1C
  4880 0001:00042D44  4881 0001:00042D6C  4884 0001:00042D94  4888 0001:00042D9E
  4889 0001:00042DB8  4890 0001:00042DD2  4891 0001:00042DEC  4895 0001:00042E06
  4897 0001:00042E13  4898 0001:00042E20  4899 0001:00042E2D  4900 0001:00042E3A
  4902 0001:00042E47  4903 0001:00042E54  4904 0001:00042E61  4907 0001:00042E6F
  4909 0001:00042E83  4911 0001:00042E96  4920 0001:0004302C  4922 0001:00043050
  4923 0001:00043059  4924 0001:0004305B  4928 0001:00043060  4929 0001:00043067
  4930 0001:00043069  4934 0001:0004306E  4935 0001:00043074  4936 0001:00043076
  4940 0001:0004307B  4942 0001:00043080  4943 0001:00043095  4946 0001:000430AD
  4947 0001:000430B7  4951 0001:000430C2  4954 0001:000430D0  4956 0001:0004310C
  4959 0001:00043110  4961 0001:00043112  4965 0001:0004314C  4966 0001:00043150
  4975 0001:00043154  4976 0001:0004317F  4979 0001:00043199  4980 0001:0004319D
  4981 0001:000431A5  4982 0001:000431C2  4983 0001:000431C8  4984 0001:000431D0
  4985 0001:000431E3  4995 0001:00043268  4996 0001:00043296  4998 0001:000432B0
  4999 0001:000432CE  5002 0001:000432E7  5003 0001:000432F6  5012 0001:00043304
  5014 0001:0004332F  5018 0001:00043334  5030 0001:00043342  5031 0001:000433EB
  5033 0001:000433FC  5035 0001:00043403  5043 0001:00043524  5044 0001:0004353D
  5045 0001:0004354C  5047 0001:0004355C  5049 0001:00043570  5059 0001:000435A0
  5060 0001:000435EA  5062 0001:00043604  5063 0001:00043614  5064 0001:00043618
  5067 0001:0004361D  5068 0001:0004363B  5070 0001:0004364B  5072 0001:00043667
  5074 0001:00043681  5075 0001:000436A2  5078 0001:000436C3  5079 0001:000436D3
  5080 0001:000436E1  5082 0001:000436F0  5084 0001:00043710  5086 0001:00043716
  5087 0001:0004371A  5091 0001:00043724  5092 0001:00043742  5094 0001:0004375B
  5100 0001:000437CA  5101 0001:000437CC  5102 0001:000437DA  5104 0001:00043802
  5108 0001:00043816  5110 0001:00043825  5111 0001:00043835  5115 0001:0004383C
  5116 0001:00043840  5120 0001:00043847  5131 0001:00043872  5134 0001:0004387E
  5135 0001:00043884  5136 0001:000438A0  5139 0001:000438B3  5149 0001:00043A10
  5150 0001:00043A27  5151 0001:00043A37  5155 0001:00043A3D  5156 0001:00043A44
  5157 0001:00043A54  5158 0001:00043A62  5159 0001:00043A6E  5161 0001:00043A97
  5163 0001:00043AAB  5171 0001:00043AB8  5173 0001:00043AD1  5174 0001:00043AE0
  5175 0001:00043AE2  5178 0001:00043AE4  5179 0001:00043AF4  5180 0001:00043AF6
  5182 0001:00043AF8  5183 0001:00043B08  5184 0001:00043B0A  5188 0001:00043B0C
  5189 0001:00043B16  5190 0001:00043B27  5191 0001:00043B29  5193 0001:00043B2B
  5194 0001:00043B3C  5195 0001:00043B3E  5198 0001:00043B40  5199 0001:00043B42
  5205 0001:00043BA0  5206 0001:00043BBD  5207 0001:00043BCB  5209 0001:00043BD3
  5210 0001:00043BF1  5211 0001:00043C17  5213 0001:00043C2A  5215 0001:00043C3B
  5216 0001:00043C51  5218 0001:00043C62  5219 0001:00043C77  5222 0001:00043C8E
  5225 0001:00043CAA  5226 0001:00043CC6  5227 0001:00043CDC  5231 0001:00043CF0
  5236 0001:00043D58  5237 0001:00043D7C  5270 0001:00043D7E  5272 0001:00043D86
  5273 0001:00043D94  5276 0001:00043D98  5279 0001:00043DB7  5281 0001:00043DC1
  5278 0001:00043DC7  5285 0001:00043DEA  5286 0001:00043DFD  5287 0001:00043DFF
  5302 0001:00043E40  5305 0001:00043E67  5304 0001:00043E69  5308 0001:00043E7D
  5310 0001:00043E87  5311 0001:00043EA6  5309 0001:00043EA8  5314 0001:00043EBC
  5315 0001:00043ECB  5316 0001:00043EDA  5317 0001:00043EDE  5320 0001:00043EE0
  5321 0001:00043EE2  5325 0001:00043F10  5331 0001:00043F24  5332 0001:00043F27
  5337 0001:00043F2A  5338 0001:00043F38  5339 0001:00043F3B  5340 0001:00043F3E
  5341 0001:00043F48  5345 0001:00043F4A  5346 0001:00043F59  5347 0001:00043F63
  5348 0001:00043F6D  5349 0001:00043F77  5350 0001:00043F7E  5351 0001:00043F9C
  5352 0001:00043FA1  5361 0001:00043FAC  5364 0001:00043FD3  5366 0001:00043FEC
  5368 0001:00043FFC  5369 0001:00043FFE  5372 0001:00044003  5374 0001:00044019
  5375 0001:0004401F  5377 0001:00044023  5380 0001:0004402D  5382 0001:00044042
  5384 0001:00044047  5385 0001:00044049  5388 0001:0004404E  5390 0001:00044066
  5391 0001:00044068  5399 0001:0004406D  5401 0001:00044082  5403 0001:00044087
  5404 0001:00044089  5407 0001:0004408E  5408 0001:000440A7  5409 0001:000440A9
  5411 0001:000440AE  5412 0001:000440C2  5413 0001:000440C4  5420 0001:000440C9
  5421 0001:000440E9  5422 0001:000440FD  5423 0001:000440FF  5425 0001:00044104
  5426 0001:00044118  5427 0001:0004411A  5432 0001:0004411F  5433 0001:0004413A
  5434 0001:0004414E  5435 0001:00044150  5436 0001:0004415A  5438 0001:0004415C
  5439 0001:00044170  5440 0001:00044172  5441 0001:0004417C  5445 0001:0004417E
  5446 0001:00044192  5447 0001:00044194  5450 0001:00044196  5451 0001:000441AA
  5452 0001:000441AC  5455 0001:000441AE  5456 0001:000441C2  5457 0001:000441C4
  5463 0001:000441C6  5464 0001:000441C8  5465 0001:000441D2  5469 0001:00044200
  5470 0001:00044203  5473 0001:00044204  5474 0001:0004420F  5475 0001:0004421D
  5476 0001:0004422B  5477 0001:00044238  5479 0001:00044241  5481 0001:00044257
  5483 0001:0004426D  5493 0001:00044274  5494 0001:000442B6  5495 0001:000442D0
  5496 0001:000442DE  5498 0001:000442E8  5501 0001:0004430C  5502 0001:00044314
  5503 0001:00044322  5505 0001:0004432F  5506 0001:0004433D  5509 0001:0004434C
  5515 0001:0004435B  5516 0001:00044368  5519 0001:0004437C  5512 0001:00044387
  5522 0001:000443A0  5525 0001:000443BF  5526 0001:000443C4  5536 0001:000444B0
  5537 0001:00044501  5538 0001:0004451E  5540 0001:0004452C  5542 0001:00044534
  5545 0001:0004456C  5546 0001:00044577  5547 0001:00044585  5549 0001:00044595
  5550 0001:000445A6  5556 0001:000445B8  5557 0001:000445C8  5558 0001:000445DF
  5559 0001:000445EF  5560 0001:000445FF  5563 0001:00044616  5553 0001:00044621
  5566 0001:0004463D  5569 0001:0004465F  5570 0001:00044664  5573 0001:00044760
  5574 0001:0004476B  5576 0001:00044773  5577 0001:00044781  5578 0001:0004478F
  5580 0001:0004479C  5583 0001:000447B3  5585 0001:000447BF  5587 0001:000447DD
  5589 0001:000447F3  5597 0001:00044808  5598 0001:0004482C  5599 0001:00044830
  5601 0001:0004483B  5603 0001:0004483D  5604 0001:00044841  5606 0001:00044875
  5608 0001:000448B3  5611 0001:00044930  5612 0001:00044939  5613 0001:0004494E
  5619 0001:00044974  5620 0001:00044981  5621 0001:00044984  5622 0001:00044988
  5623 0001:00044997  5624 0001:000449A1  5627 0001:000449A5  5633 0001:000449B2
  5635 0001:000449B4  5649 0001:000449BC  5653 0001:000449D0  5655 0001:000449D7
  5656 0001:000449D9  5657 0001:000449DE  5659 0001:000449EE  5661 0001:000449F4
  5662 0001:000449F6  5664 0001:000449FB  5666 0001:00044A03  5668 0001:00044A09
  5669 0001:00044A0B  5673 0001:00044A10  5675 0001:00044A16  5676 0001:00044A18
  5680 0001:00044A1D  5682 0001:00044A21  5704 0001:00044A2C  5706 0001:00044A4C
  5707 0001:00044A52  5709 0001:00044A56  5710 0001:00044A58  5713 0001:00044A5A
  5724 0001:00044A98  5726 0001:00044A9C  5752 0001:00044AA4  5753 0001:00044AA6
  5758 0001:00044AA8  5759 0001:00044AAC  5760 0001:00044AB2  5767 0001:00044ACB
  5771 0001:00044AD8  5772 0001:00044ADC  5773 0001:00044ADE  5782 0001:00044AE0
  5783 0001:00044B13  5784 0001:00044B1B  5785 0001:00044B29  5788 0001:00044B33
  5792 0001:00044B92  5793 0001:00044BA0  5795 0001:00044BAC  5796 0001:00044BB2
  5798 0001:00044BD0  5799 0001:00044BD2  5800 0001:00044BDD  5803 0001:00044BE6
  5813 0001:00044C84  5814 0001:00044CB6  5815 0001:00044CBE  5816 0001:00044CCB
  5820 0001:00044CD3  5821 0001:00044CD9  5823 0001:00044CE5  5825 0001:00044CF1
  5828 0001:00044CFC  5832 0001:00044D55  5833 0001:00044D63  5835 0001:00044D8A
  5836 0001:00044D8C  5837 0001:00044D9C  5840 0001:00044DA3  5850 0001:00044E78
  5851 0001:00044EAA  5852 0001:00044EB2  5853 0001:00044EBF  5857 0001:00044EC7
  5858 0001:00044ECD  5860 0001:00044ED9  5862 0001:00044EE5  5865 0001:00044EF0
  5869 0001:00044F49  5870 0001:00044F57  5872 0001:00044F7E  5873 0001:00044F80
  5874 0001:00044F90  5877 0001:00044F97  5886 0001:0004506C  5887 0001:0004509D
  5888 0001:000450A5  5889 0001:000450B3  5893 0001:000450BD  5897 0001:00045112
  5898 0001:00045120  5901 0001:0004512C  5902 0001:00045133  5904 0001:00045152
  5905 0001:00045154  5906 0001:0004515F  5909 0001:00045168  5915 0001:00045208
  5916 0001:00045212  5920 0001:00045214  5921 0001:0004521E  5929 0001:00045220
  5930 0001:00045242  5933 0001:00045287  5934 0001:00045295  5936 0001:000452B0
  5938 0001:000452B7

Line numbers for u_DBMS_Provider(u_DBMS_Provider.pas) segment .itext

  5940 0002:000003A0  5941 0002:000003AC  5942 0002:000003C4

Line numbers for i_TSS(i_TSS.pas) segment .text

     7 0001:00000000

Line numbers for u_exports(u_exports.pas) segment .text

   116 0001:00045480   117 0001:0004548C   118 0001:0004549A   119 0001:000454A0
   120 0001:000454A2   123 0001:000454AF   124 0001:000454B3   125 0001:000454B5
   128 0001:000454BF   129 0001:000454C3   130 0001:000454C5   134 0001:000454CF
   139 0001:000454F6   142 0001:00045507   143 0001:00045515   145 0001:0004552C
   146 0001:00045531   148 0001:00045538   154 0001:00045544   155 0001:0004554D
   156 0001:0004555B   157 0001:0004555F   158 0001:00045561   162 0001:0004556B
   163 0001:00045574   164 0001:0004557B   166 0001:0004558C   168 0001:00045593
   174 0001:0004559C   175 0001:000455A5   176 0001:000455B3   177 0001:000455B7
   178 0001:000455B9   181 0001:000455C3   183 0001:000455DE   185 0001:000455E5
   192 0001:000455F0   193 0001:000455F6   194 0001:00045604   195 0001:0004560A
   196 0001:0004560C   199 0001:00045616   201 0001:00045627   203 0001:0004562E
   212 0001:00045638   213 0001:00045641   214 0001:0004564F   215 0001:00045653
   216 0001:00045655   219 0001:0004565F   226 0001:00045686   228 0001:0004568D
   235 0001:00045698   236 0001:000456A7   237 0001:000456B5   238 0001:000456B9
   239 0001:000456BB   242 0001:000456C5   243 0001:000456C9   244 0001:000456CB
   247 0001:000456D5   248 0001:000456D9   249 0001:000456DB   252 0001:000456E5
   257 0001:000456FD   259 0001:00045704   265 0001:00045710   266 0001:0004571C
   267 0001:0004572A   268 0001:0004572E   269 0001:00045730   272 0001:0004573A
   273 0001:0004573E   274 0001:00045740   277 0001:0004574A   282 0001:00045775
   284 0001:0004577C   290 0001:00045788   291 0001:00045794   292 0001:000457A2
   293 0001:000457A6   294 0001:000457A8   297 0001:000457B2   298 0001:000457B6
   299 0001:000457B8   302 0001:000457C2   307 0001:000457DC   309 0001:000457E3
   315 0001:000457EC   316 0001:000457F8   317 0001:00045806   318 0001:0004580A
   319 0001:0004580C   322 0001:00045816   323 0001:0004581A   324 0001:0004581C
   327 0001:00045826   331 0001:0004583E   333 0001:00045845   339 0001:00045850
   340 0001:0004585C   341 0001:0004586A   342 0001:0004586E   343 0001:00045870
   346 0001:0004587A   347 0001:0004587E   348 0001:00045880   351 0001:0004588A
   355 0001:000458A2   357 0001:000458A9   364 0001:000458B4   365 0001:000458C3
   366 0001:000458D1   367 0001:000458D5   368 0001:000458D7   371 0001:000458E1
   372 0001:000458E5   373 0001:000458E7   376 0001:000458F1   377 0001:000458F5
   378 0001:000458F7   381 0001:00045901   386 0001:00045919   388 0001:00045920
   395 0001:0004592C   396 0001:0004593B   397 0001:00045949   398 0001:0004594D
   399 0001:0004594F   402 0001:00045959   403 0001:0004595D   404 0001:0004595F
   407 0001:00045969   408 0001:0004596D   409 0001:0004596F   412 0001:00045979
   417 0001:00045993   419 0001:0004599A   427 0001:000459A4   428 0001:000459B3
   429 0001:000459C1   430 0001:000459C5   431 0001:000459C7   434 0001:000459D1
   435 0001:000459D5   436 0001:000459D7   439 0001:000459E1   440 0001:000459E5
   441 0001:000459E7   445 0001:000459F1   451 0001:00045A0D   453 0001:00045A14
   459 0001:00045A20   460 0001:00045A29   461 0001:00045A37   462 0001:00045A3B
   463 0001:00045A3D   467 0001:00045A47   468 0001:00045A4E   470 0001:00045A5F
   472 0001:00045A66   479 0001:00045A70   480 0001:00045A7F   481 0001:00045A8D
   482 0001:00045A91   483 0001:00045A93   486 0001:00045A9D   487 0001:00045AA1
   488 0001:00045AA3   491 0001:00045AAD   492 0001:00045AB1   493 0001:00045AB3
   497 0001:00045ABD   502 0001:00045AD5   504 0001:00045ADC   511 0001:00045AE8
   512 0001:00045AF4   513 0001:00045B02   514 0001:00045B06   515 0001:00045B08
   525 0001:00045B12   526 0001:00045B16   527 0001:00045B18   530 0001:00045B22
   535 0001:00045B3F   537 0001:00045B46   542 0001:00045B50   543 0001:00045B56
   544 0001:00045B5A   545 0001:00045B61   547 0001:00045B65   549 0001:00045B67
   551 0001:00045B99

Line numbers for TileStorage_DBMS(TileStorage_DBMS.dpr) segment .itext

    66 0002:000003C8    67 0002:000003D8    68 0002:000003E0

Bound resource files

TileStorage_DBMS.res
TileStorage_DBMS.drf


Program entry point at 0002:000003C8
